	.text
	.file	"ggml-cpu.c"
	.globl	ggml_get_type_traits_cpu        // -- Begin function ggml_get_type_traits_cpu
	.p2align	4
	.type	ggml_get_type_traits_cpu,@function
ggml_get_type_traits_cpu:               // @ggml_get_type_traits_cpu
	.cfi_startproc
// %bb.0:
	adrp	x8, type_traits_cpu
	add	x8, x8, :lo12:type_traits_cpu
	mov	w9, w0
	add	x0, x8, x9, lsl #5
	ret
.Lfunc_end0:
	.size	ggml_get_type_traits_cpu, .Lfunc_end0-ggml_get_type_traits_cpu
	.cfi_endproc
                                        // -- End function
	.p2align	4                               // -- Begin function ggml_vec_dot_f32
	.type	ggml_vec_dot_f32,@function
ggml_vec_dot_f32:                       // @ggml_vec_dot_f32
	.cfi_startproc
// %bb.0:
	cmp	w0, #1
	b.lt	.LBB1_3
// %bb.1:                               // %.lr.ph.preheader
	mov	w8, w0
	cmp	w0, #1
	b.ne	.LBB1_4
// %bb.2:
	fmov	d0, xzr
	mov	x9, xzr
	b	.LBB1_7
.LBB1_3:
	fmov	s0, wzr
	str	s0, [x1]
	ret
.LBB1_4:                                // %vector.ph
	fmov	d0, xzr
	and	x9, x8, #0x7ffffffe
	add	x10, x3, #4
	add	x11, x5, #4
	mov	x12, x9
	.p2align	5, , 16
.LBB1_5:                                // %vector.body
                                        // =>This Inner Loop Header: Depth=1
	ldp	s1, s2, [x10, #-4]
	add	x10, x10, #8
	ldp	s3, s4, [x11, #-4]
	add	x11, x11, #8
	subs	x12, x12, #2
	fmul	s2, s2, s4
	fmul	s1, s1, s3
	fcvt	d2, s2
	fcvt	d1, s1
	nop
	nop
	b.ne	.LBB1_5
// %bb.6:                               // %middle.block
	cmp	x9, x8
	b.eq	.LBB1_13
.LBB1_7:                                // %.lr.ph.preheader17
	tbnz	w8, #0, .LBB1_9
// %bb.8:
	mov	x10, x9
	b	.LBB1_10
.LBB1_9:                                // %.lr.ph.prol
	ldr	s1, [x3, x9, lsl #2]
	orr	x10, x9, #0x1
	ldr	s2, [x5, x9, lsl #2]
	fmul	s1, s1, s2
	fcvt	d1, s1
	fadd	d0, d0, d1
.LBB1_10:                               // %.lr.ph.prol.loopexit
	sub	x11, x8, #1
	cmp	x9, x11
	b.eq	.LBB1_13
// %bb.11:                              // %.lr.ph.preheader22
	lsl	x9, x10, #2
	sub	x8, x8, x10
	add	x10, x9, #4
	add	x9, x5, x10
	add	x10, x3, x10
	.p2align	5, , 16
.LBB1_12:                               // %.lr.ph
                                        // =>This Inner Loop Header: Depth=1
	ldp	s1, s2, [x10, #-4]
	subs	x8, x8, #2
	ldp	s3, s4, [x9, #-4]
	add	x9, x9, #8
	add	x10, x10, #8
	fmul	s1, s1, s3
	fcvt	d1, s1
	fadd	d0, d0, d1
	fmul	s1, s2, s4
	fcvt	d1, s1
	fadd	d0, d0, d1
	b.ne	.LBB1_12
.LBB1_13:                               // %._crit_edge.loopexit
	fcvt	s0, d0
	str	s0, [x1]
	ret
.Lfunc_end1:
	.size	ggml_vec_dot_f32, .Lfunc_end1-ggml_vec_dot_f32
	.cfi_endproc
                                        // -- End function
	.p2align	4                               // -- Begin function ggml_vec_dot_f16
	.type	ggml_vec_dot_f16,@function
ggml_vec_dot_f16:                       // @ggml_vec_dot_f16
	.cfi_startproc
// %bb.0:
	cmp	w0, #1
	b.lt	.LBB2_4
// %bb.1:                               // %.lr.ph.preheader
	adrp	x9, :got:ggml_table_f32_f16
	fmov	d0, xzr
	mov	w8, w0
	ldr	x9, [x9, :got_lo12:ggml_table_f32_f16]
	.p2align	5, , 16
.LBB2_2:                                // %.lr.ph
                                        // =>This Inner Loop Header: Depth=1
	//APP
	// loop body
	//NO_APP
	ldrh	w10, [x3], #2
	subs	x8, x8, #1
	ldr	s1, [x9, x10, lsl #2]
	ldrh	w10, [x5], #2
	ldr	s2, [x9, x10, lsl #2]
	//APP
	// loop body end
	//NO_APP
	fmul	s1, s1, s2
	fcvt	d1, s1
	fadd	d0, d0, d1
	b.ne	.LBB2_2
// %bb.3:                               // %._crit_edge.loopexit
	fcvt	s0, d0
	str	s0, [x1]
	ret
.LBB2_4:
	fmov	s0, wzr
	str	s0, [x1]
	ret
.Lfunc_end2:
	.size	ggml_vec_dot_f16, .Lfunc_end2-ggml_vec_dot_f16
	.cfi_endproc
                                        // -- End function
	.p2align	4                               // -- Begin function ggml_vec_dot_bf16
	.type	ggml_vec_dot_bf16,@function
ggml_vec_dot_bf16:                      // @ggml_vec_dot_bf16
	.cfi_startproc
// %bb.0:
	cmp	w0, #1
	b.lt	.LBB3_3
// %bb.1:                               // %.lr.ph.preheader
	mov	w8, w0
	cmp	w0, #1
	b.ne	.LBB3_4
// %bb.2:
	mov	x9, xzr
	fmov	d0, xzr
	b	.LBB3_7
.LBB3_3:
	fmov	s0, wzr
	str	s0, [x1]
	ret
.LBB3_4:                                // %vector.ph
	fmov	d0, xzr
	and	x9, x8, #0x7ffffffe
	add	x10, x3, #2
	add	x11, x5, #2
	mov	x12, x9
	.p2align	5, , 16
.LBB3_5:                                // %vector.body
                                        // =>This Inner Loop Header: Depth=1
	ldurh	w13, [x10, #-2]
	subs	x12, x12, #2
	lsl	w13, w13, #16
	ldrh	w14, [x10], #4
	lsl	w14, w14, #16
	fmov	s1, w13
	ldurh	w13, [x11, #-2]
	fmov	s2, w14
	ldrh	w14, [x11], #4
	lsl	w13, w13, #16
	lsl	w14, w14, #16
	fmov	s3, w13
	fmov	s4, w14
	fmul	s1, s1, s3
	fmul	s2, s2, s4
	fcvt	d1, s1
	fcvt	d2, s2
	fadd	d0, d0, d1
	fadd	d0, d0, d2
	b.ne	.LBB3_5
// %bb.6:                               // %middle.block
	cmp	x9, x8
	b.eq	.LBB3_9
.LBB3_7:                                // %.lr.ph.preheader22
	add	x10, x5, x9, lsl #1
	sub	x8, x8, x9
	add	x9, x3, x9, lsl #1
	.p2align	5, , 16
.LBB3_8:                                // %.lr.ph
                                        // =>This Inner Loop Header: Depth=1
	ldrh	w11, [x9], #2
	subs	x8, x8, #1
	lsl	w11, w11, #16
	fmov	s1, w11
	ldrh	w11, [x10], #2
	lsl	w11, w11, #16
	fmov	s2, w11
	fmul	s1, s1, s2
	fcvt	d1, s1
	fadd	d0, d0, d1
	b.ne	.LBB3_8
.LBB3_9:                                // %._crit_edge.loopexit
	fcvt	s0, d0
	str	s0, [x1]
	ret
.Lfunc_end3:
	.size	ggml_vec_dot_bf16, .Lfunc_end3-ggml_vec_dot_bf16
	.cfi_endproc
                                        // -- End function
	.globl	ggml_barrier                    // -- Begin function ggml_barrier
	.p2align	4
	.type	ggml_barrier,@function
ggml_barrier:                           // @ggml_barrier
	.cfi_startproc
// %bb.0:
	stp	x29, x30, [sp, #-32]!           // 16-byte Folded Spill
	.cfi_def_cfa_offset 32
	str	x19, [sp, #16]                  // 8-byte Folded Spill
	mov	x29, sp
	.cfi_def_cfa w29, 32
	.cfi_offset w19, -16
	.cfi_offset w30, -24
	.cfi_offset w29, -32
	.cfi_remember_state
	mov	x19, x0
	adrp	x0, .L__unnamed_1
	add	x0, x0, :lo12:.L__unnamed_1
	bl	__kmpc_global_thread_num
	ldr	w8, [x19, #284]
	cmp	w8, #1
	b.ne	.LBB4_2
// %bb.1:
	.cfi_def_cfa wsp, 32
	ldr	x19, [sp, #16]                  // 8-byte Folded Reload
	ldp	x29, x30, [sp], #32             // 16-byte Folded Reload
	.cfi_def_cfa_offset 0
	.cfi_restore w19
	.cfi_restore w30
	.cfi_restore w29
	ret
.LBB4_2:
	.cfi_restore_state
	mov	w1, w0
	adrp	x0, .L__unnamed_2
	add	x0, x0, :lo12:.L__unnamed_2
	.cfi_def_cfa wsp, 32
	ldr	x19, [sp, #16]                  // 8-byte Folded Reload
	ldp	x29, x30, [sp], #32             // 16-byte Folded Reload
	.cfi_def_cfa_offset 0
	.cfi_restore w19
	.cfi_restore w30
	.cfi_restore w29
	b	__kmpc_barrier
.Lfunc_end4:
	.size	ggml_barrier, .Lfunc_end4-ggml_barrier
	.cfi_endproc
                                        // -- End function
	.globl	ggml_numa_init                  // -- Begin function ggml_numa_init
	.p2align	4
	.type	ggml_numa_init,@function
ggml_numa_init:                         // @ggml_numa_init
	.cfi_startproc
// %bb.0:
	ret
.Lfunc_end5:
	.size	ggml_numa_init, .Lfunc_end5-ggml_numa_init
	.cfi_endproc
                                        // -- End function
	.globl	ggml_is_numa                    // -- Begin function ggml_is_numa
	.p2align	4
	.type	ggml_is_numa,@function
ggml_is_numa:                           // @ggml_is_numa
	.cfi_startproc
// %bb.0:
	mov	w0, wzr
	ret
.Lfunc_end6:
	.size	ggml_is_numa, .Lfunc_end6-ggml_is_numa
	.cfi_endproc
                                        // -- End function
	.globl	ggml_new_i32                    // -- Begin function ggml_new_i32
	.p2align	4
	.type	ggml_new_i32,@function
ggml_new_i32:                           // @ggml_new_i32
	.cfi_startproc
// %bb.0:
	stp	x29, x30, [sp, #-32]!           // 16-byte Folded Spill
	.cfi_def_cfa_offset 32
	stp	x20, x19, [sp, #16]             // 16-byte Folded Spill
	mov	x29, sp
	.cfi_def_cfa w29, 32
	.cfi_offset w19, -8
	.cfi_offset w20, -16
	.cfi_offset w30, -24
	.cfi_offset w29, -32
	.cfi_remember_state
	mov	w19, w1
	mov	x20, x0
	bl	ggml_get_no_alloc
	tbnz	w0, #0, .LBB7_2
// %bb.1:
	mov	x0, x20
	mov	w1, #26                         // =0x1a
	mov	w2, #1                          // =0x1
	bl	ggml_new_tensor_1d
	mov	w1, w19
	.cfi_def_cfa wsp, 32
	ldp	x20, x19, [sp, #16]             // 16-byte Folded Reload
	ldp	x29, x30, [sp], #32             // 16-byte Folded Reload
	.cfi_def_cfa_offset 0
	.cfi_restore w19
	.cfi_restore w20
	.cfi_restore w30
	.cfi_restore w29
	b	ggml_set_i32
.LBB7_2:
	.cfi_restore_state
	adrp	x0, .L.str.1
	add	x0, x0, :lo12:.L.str.1
	adrp	x2, .L.str.2
	add	x2, x2, :lo12:.L.str.2
	adrp	x3, .L.str.3
	add	x3, x3, :lo12:.L.str.3
	mov	w1, #2703                       // =0xa8f
	bl	ggml_abort
.Lfunc_end7:
	.size	ggml_new_i32, .Lfunc_end7-ggml_new_i32
	.cfi_endproc
                                        // -- End function
	.globl	ggml_set_i32                    // -- Begin function ggml_set_i32
	.p2align	4
	.type	ggml_set_i32,@function
ggml_set_i32:                           // @ggml_set_i32
	.cfi_startproc
// %bb.0:
	stp	x29, x30, [sp, #-96]!           // 16-byte Folded Spill
	.cfi_def_cfa_offset 96
	stp	x28, x27, [sp, #16]             // 16-byte Folded Spill
	stp	x26, x25, [sp, #32]             // 16-byte Folded Spill
	stp	x24, x23, [sp, #48]             // 16-byte Folded Spill
	stp	x22, x21, [sp, #64]             // 16-byte Folded Spill
	stp	x20, x19, [sp, #80]             // 16-byte Folded Spill
	mov	x29, sp
	.cfi_def_cfa w29, 96
	.cfi_offset w19, -8
	.cfi_offset w20, -16
	.cfi_offset w21, -24
	.cfi_offset w22, -32
	.cfi_offset w23, -40
	.cfi_offset w24, -48
	.cfi_offset w25, -56
	.cfi_offset w26, -64
	.cfi_offset w27, -72
	.cfi_offset w28, -80
	.cfi_offset w30, -88
	.cfi_offset w29, -96
	.cfi_remember_state
	mov	w20, w1
	mov	x19, x0
	bl	ggml_nrows
	ldr	x22, [x19, #16]
	ldr	x23, [x19, #56]
	ldr	x24, [x19, #248]
	ldr	w8, [x19]
	cmp	w8, #24
	b.gt	.LBB8_10
// %bb.1:
	cbz	w8, .LBB8_58
// %bb.2:
	cmp	w8, #1
	b.eq	.LBB8_28
// %bb.3:
	cmp	w8, #24
	b.ne	.LBB8_93
// %bb.4:                               // %.preheader
	cmp	w0, #1
	b.lt	.LBB8_88
// %bb.5:                               // %.lr.ph102
	and	x8, x0, #0x7fffffff
	and	x25, x0, #0x1
	cmp	x8, #1
	b.ne	.LBB8_89
// %bb.6:
	mov	x26, xzr
.LBB8_7:                                // %.loopexit.loopexit.unr-lcssa
	cbz	x25, .LBB8_88
// %bb.8:                               // %.loopexit.loopexit.unr-lcssa
	cmp	w22, #1
	b.lt	.LBB8_88
// %bb.9:                               // %.lr.ph.preheader.i.epil
	madd	x0, x23, x26, x24
	and	x2, x22, #0x7fffffff
	mov	w1, w20
	bl	memset
	b	.LBB8_88
.LBB8_10:
	cmp	w8, #25
	b.eq	.LBB8_73
// %bb.11:
	cmp	w8, #26
	b.eq	.LBB8_43
// %bb.12:
	cmp	w8, #30
	b.ne	.LBB8_93
// %bb.13:                              // %.preheader88
	cmp	w0, #1
	b.lt	.LBB8_88
// %bb.14:                              // %.lr.ph94
	scvtf	s0, w20
	mov	w12, #32767                     // =0x7fff
	mov	w14, #2139095040                // =0x7f800000
	and	x9, x22, #0x7fffffff
	and	x11, x22, #0x1
	mov	x8, xzr
	and	x10, x0, #0x7fffffff
	fmov	w13, s0
	ubfx	w15, w13, #16, #1
	add	w15, w13, w15
	add	w12, w15, w12
	and	w15, w13, #0x7fffffff
	lsr	w13, w13, #16
	orr	w13, w13, #0x40
	cmp	w15, w14
	lsr	w12, w12, #16
	add	x14, x24, #2
	add	x15, x24, #14
	csel	w12, w13, w12, hi
	sub	x13, x9, x11
	b	.LBB8_16
	.p2align	5, , 16
.LBB8_15:                               // %ggml_vec_set_bf16.exit
                                        //   in Loop: Header=BB8_16 Depth=1
	add	x8, x8, #1
	add	x14, x14, x23
	add	x24, x24, x23
	add	x15, x15, x23
	cmp	x8, x10
	b.eq	.LBB8_88
.LBB8_16:                               // %ggml_compute_fp32_to_bf16.exit
                                        // =>This Loop Header: Depth=1
                                        //     Child Loop BB8_20 Depth 2
                                        //     Child Loop BB8_24 Depth 2
                                        //     Child Loop BB8_27 Depth 2
	cmp	w22, #1
	b.lt	.LBB8_15
// %bb.17:                              // %.lr.ph.i72.preheader
                                        //   in Loop: Header=BB8_16 Depth=1
	cmp	x9, #2
	b.hs	.LBB8_19
// %bb.18:                              //   in Loop: Header=BB8_16 Depth=1
	mov	x16, xzr
	b	.LBB8_22
	.p2align	5, , 16
.LBB8_19:                               // %vector.body151.preheader
                                        //   in Loop: Header=BB8_16 Depth=1
	mov	x16, x13
	mov	x17, x14
	.p2align	5, , 16
.LBB8_20:                               // %vector.body151
                                        //   Parent Loop BB8_16 Depth=1
                                        // =>  This Inner Loop Header: Depth=2
	sturh	w12, [x17, #-2]
	subs	x16, x16, #2
	strh	w12, [x17], #4
	b.ne	.LBB8_20
// %bb.21:                              // %middle.block144
                                        //   in Loop: Header=BB8_16 Depth=1
	mov	x16, x13
	cbz	x11, .LBB8_15
.LBB8_22:                               // %.lr.ph.i72.preheader194
                                        //   in Loop: Header=BB8_16 Depth=1
	sub	w17, w22, w16
	ands	x0, x17, #0x7
	mov	x17, x16
	b.eq	.LBB8_25
// %bb.23:                              // %.lr.ph.i72.prol.preheader
                                        //   in Loop: Header=BB8_16 Depth=1
	mov	x17, x16
	.p2align	5, , 16
.LBB8_24:                               // %.lr.ph.i72.prol
                                        //   Parent Loop BB8_16 Depth=1
                                        // =>  This Inner Loop Header: Depth=2
	strh	w12, [x24, x17, lsl #1]
	add	x17, x17, #1
	subs	x0, x0, #1
	b.ne	.LBB8_24
.LBB8_25:                               // %.lr.ph.i72.prol.loopexit
                                        //   in Loop: Header=BB8_16 Depth=1
	sub	x16, x16, x9
	cmn	x16, #8
	b.hi	.LBB8_15
// %bb.26:                              // %.lr.ph.i72.preheader194.new
                                        //   in Loop: Header=BB8_16 Depth=1
	sub	x16, x9, x17
	lsl	x17, x17, #1
	mov	x0, x15
	.p2align	5, , 16
.LBB8_27:                               // %.lr.ph.i72
                                        //   Parent Loop BB8_16 Depth=1
                                        // =>  This Inner Loop Header: Depth=2
	add	x1, x0, x17
	subs	x16, x16, #8
	sturh	w12, [x1, #-14]
	add	x0, x0, #16
	sturh	w12, [x1, #-12]
	sturh	w12, [x1, #-10]
	sturh	w12, [x1, #-8]
	sturh	w12, [x1, #-6]
	sturh	w12, [x1, #-4]
	sturh	w12, [x1, #-2]
	strh	w12, [x1]
	b.ne	.LBB8_27
	b	.LBB8_15
.LBB8_28:                               // %.preheader86
	cmp	w0, #1
	b.lt	.LBB8_88
// %bb.29:                              // %.lr.ph96
	scvtf	s0, w20
	mov	w9, #2004877312                 // =0x77800000
	fmov	s2, w9
	mov	w9, #142606336                  // =0x8800000
	mov	w10, #125829120                 // =0x7800000
	mov	w13, #1073741824                // =0x40000000
	mov	w14, #32256                     // =0x7e00
	mov	x8, xzr
	add	x15, x24, #14
	fabs	s1, s0
	fmul	s1, s1, s2
	fmov	s2, w9
	fmov	w9, s0
	and	w11, w9, #0x7f800000
	ubfx	w12, w9, #23, #8
	fmul	s0, s1, s2
	add	w10, w11, w10
	cmp	w12, #113
	mov	w11, #-16777216                 // =0xff000000
	csel	w10, w13, w10, lo
	lsl	w13, w9, #1
	lsr	w9, w9, #31
	fmov	s1, w10
	cmp	w13, w11
	and	x11, x0, #0x7fffffff
	fadd	s0, s0, s1
	fmov	w10, s0
	lsr	w12, w10, #13
	and	w10, w10, #0xfff
	and	w12, w12, #0x7c00
	add	w10, w12, w10
	and	x12, x22, #0x1
	csel	w10, w14, w10, hi
	add	x14, x24, #2
	orr	w9, w10, w9, lsl #15
	and	x10, x22, #0x7fffffff
	sub	x13, x10, x12
	b	.LBB8_31
	.p2align	5, , 16
.LBB8_30:                               // %ggml_vec_set_f16.exit
                                        //   in Loop: Header=BB8_31 Depth=1
	add	x8, x8, #1
	add	x14, x14, x23
	add	x24, x24, x23
	add	x15, x15, x23
	cmp	x8, x11
	b.eq	.LBB8_88
.LBB8_31:                               // =>This Loop Header: Depth=1
                                        //     Child Loop BB8_35 Depth 2
                                        //     Child Loop BB8_39 Depth 2
                                        //     Child Loop BB8_42 Depth 2
	cmp	w22, #1
	b.lt	.LBB8_30
// %bb.32:                              // %.lr.ph.i65.preheader
                                        //   in Loop: Header=BB8_31 Depth=1
	cmp	x10, #2
	b.hs	.LBB8_34
// %bb.33:                              //   in Loop: Header=BB8_31 Depth=1
	mov	x16, xzr
	b	.LBB8_37
	.p2align	5, , 16
.LBB8_34:                               // %vector.body162.preheader
                                        //   in Loop: Header=BB8_31 Depth=1
	mov	x16, x13
	mov	x17, x14
	.p2align	5, , 16
.LBB8_35:                               // %vector.body162
                                        //   Parent Loop BB8_31 Depth=1
                                        // =>  This Inner Loop Header: Depth=2
	sturh	w9, [x17, #-2]
	subs	x16, x16, #2
	strh	w9, [x17], #4
	b.ne	.LBB8_35
// %bb.36:                              // %middle.block155
                                        //   in Loop: Header=BB8_31 Depth=1
	mov	x16, x13
	cbz	x12, .LBB8_30
.LBB8_37:                               // %.lr.ph.i65.preheader192
                                        //   in Loop: Header=BB8_31 Depth=1
	sub	w17, w22, w16
	ands	x0, x17, #0x7
	mov	x17, x16
	b.eq	.LBB8_40
// %bb.38:                              // %.lr.ph.i65.prol.preheader
                                        //   in Loop: Header=BB8_31 Depth=1
	mov	x17, x16
	.p2align	5, , 16
.LBB8_39:                               // %.lr.ph.i65.prol
                                        //   Parent Loop BB8_31 Depth=1
                                        // =>  This Inner Loop Header: Depth=2
	strh	w9, [x24, x17, lsl #1]
	add	x17, x17, #1
	subs	x0, x0, #1
	b.ne	.LBB8_39
.LBB8_40:                               // %.lr.ph.i65.prol.loopexit
                                        //   in Loop: Header=BB8_31 Depth=1
	sub	x16, x16, x10
	cmn	x16, #8
	b.hi	.LBB8_30
// %bb.41:                              // %.lr.ph.i65.preheader192.new
                                        //   in Loop: Header=BB8_31 Depth=1
	sub	x16, x10, x17
	lsl	x17, x17, #1
	mov	x0, x15
	.p2align	5, , 16
.LBB8_42:                               // %.lr.ph.i65
                                        //   Parent Loop BB8_31 Depth=1
                                        // =>  This Inner Loop Header: Depth=2
	add	x1, x0, x17
	subs	x16, x16, #8
	sturh	w9, [x1, #-14]
	add	x0, x0, #16
	sturh	w9, [x1, #-12]
	sturh	w9, [x1, #-10]
	sturh	w9, [x1, #-8]
	sturh	w9, [x1, #-6]
	sturh	w9, [x1, #-4]
	sturh	w9, [x1, #-2]
	strh	w9, [x1]
	b.ne	.LBB8_42
	b	.LBB8_30
.LBB8_43:                               // %.preheader84
	cmp	w0, #1
	b.lt	.LBB8_88
// %bb.44:                              // %.lr.ph98
	and	x9, x22, #0x7fffffff
	and	x11, x22, #0x1
	mov	x8, xzr
	and	x10, x0, #0x7fffffff
	sub	x12, x9, x11
	add	x13, x24, #4
	add	x14, x24, #28
	b	.LBB8_46
	.p2align	5, , 16
.LBB8_45:                               // %ggml_vec_set_i32.exit
                                        //   in Loop: Header=BB8_46 Depth=1
	add	x8, x8, #1
	add	x13, x13, x23
	add	x24, x24, x23
	add	x14, x14, x23
	cmp	x8, x10
	b.eq	.LBB8_88
.LBB8_46:                               // =>This Loop Header: Depth=1
                                        //     Child Loop BB8_50 Depth 2
                                        //     Child Loop BB8_54 Depth 2
                                        //     Child Loop BB8_57 Depth 2
	cmp	w22, #1
	b.lt	.LBB8_45
// %bb.47:                              // %.lr.ph.i61.preheader
                                        //   in Loop: Header=BB8_46 Depth=1
	cmp	x9, #2
	b.hs	.LBB8_49
// %bb.48:                              //   in Loop: Header=BB8_46 Depth=1
	mov	x15, xzr
	b	.LBB8_52
	.p2align	5, , 16
.LBB8_49:                               // %vector.body173.preheader
                                        //   in Loop: Header=BB8_46 Depth=1
	mov	x15, x12
	mov	x16, x13
	.p2align	5, , 16
.LBB8_50:                               // %vector.body173
                                        //   Parent Loop BB8_46 Depth=1
                                        // =>  This Inner Loop Header: Depth=2
	stp	w20, w20, [x16, #-4]
	add	x16, x16, #8
	subs	x15, x15, #2
	b.ne	.LBB8_50
// %bb.51:                              // %middle.block166
                                        //   in Loop: Header=BB8_46 Depth=1
	mov	x15, x12
	cbz	x11, .LBB8_45
.LBB8_52:                               // %.lr.ph.i61.preheader190
                                        //   in Loop: Header=BB8_46 Depth=1
	sub	w16, w22, w15
	ands	x17, x16, #0x7
	mov	x16, x15
	b.eq	.LBB8_55
// %bb.53:                              // %.lr.ph.i61.prol.preheader
                                        //   in Loop: Header=BB8_46 Depth=1
	mov	x16, x15
	.p2align	5, , 16
.LBB8_54:                               // %.lr.ph.i61.prol
                                        //   Parent Loop BB8_46 Depth=1
                                        // =>  This Inner Loop Header: Depth=2
	str	w20, [x24, x16, lsl #2]
	add	x16, x16, #1
	subs	x17, x17, #1
	b.ne	.LBB8_54
.LBB8_55:                               // %.lr.ph.i61.prol.loopexit
                                        //   in Loop: Header=BB8_46 Depth=1
	sub	x15, x15, x9
	cmn	x15, #8
	b.hi	.LBB8_45
// %bb.56:                              // %.lr.ph.i61.preheader190.new
                                        //   in Loop: Header=BB8_46 Depth=1
	sub	x15, x9, x16
	lsl	x16, x16, #2
	mov	x17, x14
	.p2align	5, , 16
.LBB8_57:                               // %.lr.ph.i61
                                        //   Parent Loop BB8_46 Depth=1
                                        // =>  This Inner Loop Header: Depth=2
	add	x0, x17, x16
	subs	x15, x15, #8
	stp	w20, w20, [x0, #-28]
	add	x17, x17, #32
	stp	w20, w20, [x0, #-20]
	stp	w20, w20, [x0, #-12]
	stp	w20, w20, [x0, #-4]
	b.ne	.LBB8_57
	b	.LBB8_45
.LBB8_58:                               // %.preheader90
	cmp	w0, #1
	b.lt	.LBB8_88
// %bb.59:                              // %.lr.ph
	scvtf	s0, w20
	and	x9, x22, #0x7fffffff
	and	x11, x22, #0x1
	mov	x8, xzr
	and	x10, x0, #0x7fffffff
	sub	x12, x9, x11
	add	x13, x24, #4
	add	x14, x24, #28
	b	.LBB8_61
	.p2align	5, , 16
.LBB8_60:                               // %ggml_vec_set_f32.exit
                                        //   in Loop: Header=BB8_61 Depth=1
	add	x8, x8, #1
	add	x13, x13, x23
	add	x24, x24, x23
	add	x14, x14, x23
	cmp	x8, x10
	b.eq	.LBB8_88
.LBB8_61:                               // =>This Loop Header: Depth=1
                                        //     Child Loop BB8_65 Depth 2
                                        //     Child Loop BB8_69 Depth 2
                                        //     Child Loop BB8_72 Depth 2
	cmp	w22, #1
	b.lt	.LBB8_60
// %bb.62:                              // %.lr.ph.i78.preheader
                                        //   in Loop: Header=BB8_61 Depth=1
	cmp	x9, #2
	b.hs	.LBB8_64
// %bb.63:                              //   in Loop: Header=BB8_61 Depth=1
	mov	x15, xzr
	b	.LBB8_67
	.p2align	5, , 16
.LBB8_64:                               // %vector.body.preheader
                                        //   in Loop: Header=BB8_61 Depth=1
	mov	x15, x12
	mov	x16, x13
	.p2align	5, , 16
.LBB8_65:                               // %vector.body
                                        //   Parent Loop BB8_61 Depth=1
                                        // =>  This Inner Loop Header: Depth=2
	stp	s0, s0, [x16, #-4]
	add	x16, x16, #8
	subs	x15, x15, #2
	b.ne	.LBB8_65
// %bb.66:                              // %middle.block
                                        //   in Loop: Header=BB8_61 Depth=1
	mov	x15, x12
	cbz	x11, .LBB8_60
.LBB8_67:                               // %.lr.ph.i78.preheader196
                                        //   in Loop: Header=BB8_61 Depth=1
	sub	w16, w22, w15
	ands	x17, x16, #0x7
	mov	x16, x15
	b.eq	.LBB8_70
// %bb.68:                              // %.lr.ph.i78.prol.preheader
                                        //   in Loop: Header=BB8_61 Depth=1
	mov	x16, x15
	.p2align	5, , 16
.LBB8_69:                               // %.lr.ph.i78.prol
                                        //   Parent Loop BB8_61 Depth=1
                                        // =>  This Inner Loop Header: Depth=2
	str	s0, [x24, x16, lsl #2]
	add	x16, x16, #1
	subs	x17, x17, #1
	b.ne	.LBB8_69
.LBB8_70:                               // %.lr.ph.i78.prol.loopexit
                                        //   in Loop: Header=BB8_61 Depth=1
	sub	x15, x15, x9
	cmn	x15, #8
	b.hi	.LBB8_60
// %bb.71:                              // %.lr.ph.i78.preheader196.new
                                        //   in Loop: Header=BB8_61 Depth=1
	sub	x15, x9, x16
	lsl	x16, x16, #2
	mov	x17, x14
	.p2align	5, , 16
.LBB8_72:                               // %.lr.ph.i78
                                        //   Parent Loop BB8_61 Depth=1
                                        // =>  This Inner Loop Header: Depth=2
	add	x0, x17, x16
	subs	x15, x15, #8
	stp	s0, s0, [x0, #-28]
	add	x17, x17, #32
	stp	s0, s0, [x0, #-20]
	stp	s0, s0, [x0, #-12]
	stp	s0, s0, [x0, #-4]
	b.ne	.LBB8_72
	b	.LBB8_60
.LBB8_73:                               // %.preheader82
	cmp	w0, #1
	b.lt	.LBB8_88
// %bb.74:                              // %.lr.ph100
	and	x9, x22, #0x7fffffff
	and	x11, x22, #0x1
	mov	x8, xzr
	and	x10, x0, #0x7fffffff
	sub	x12, x9, x11
	add	x13, x24, #2
	add	x14, x24, #14
	b	.LBB8_76
	.p2align	5, , 16
.LBB8_75:                               // %ggml_vec_set_i16.exit
                                        //   in Loop: Header=BB8_76 Depth=1
	add	x8, x8, #1
	add	x13, x13, x23
	add	x24, x24, x23
	add	x14, x14, x23
	cmp	x8, x10
	b.eq	.LBB8_88
.LBB8_76:                               // =>This Loop Header: Depth=1
                                        //     Child Loop BB8_80 Depth 2
                                        //     Child Loop BB8_84 Depth 2
                                        //     Child Loop BB8_87 Depth 2
	cmp	w22, #1
	b.lt	.LBB8_75
// %bb.77:                              // %.lr.ph.i.preheader
                                        //   in Loop: Header=BB8_76 Depth=1
	cmp	x9, #2
	b.hs	.LBB8_79
// %bb.78:                              //   in Loop: Header=BB8_76 Depth=1
	mov	x15, xzr
	b	.LBB8_82
	.p2align	5, , 16
.LBB8_79:                               // %vector.body184.preheader
                                        //   in Loop: Header=BB8_76 Depth=1
	mov	x15, x12
	mov	x16, x13
	.p2align	5, , 16
.LBB8_80:                               // %vector.body184
                                        //   Parent Loop BB8_76 Depth=1
                                        // =>  This Inner Loop Header: Depth=2
	sturh	w20, [x16, #-2]
	subs	x15, x15, #2
	strh	w20, [x16], #4
	b.ne	.LBB8_80
// %bb.81:                              // %middle.block177
                                        //   in Loop: Header=BB8_76 Depth=1
	mov	x15, x12
	cbz	x11, .LBB8_75
.LBB8_82:                               // %.lr.ph.i.preheader188
                                        //   in Loop: Header=BB8_76 Depth=1
	sub	w16, w22, w15
	ands	x17, x16, #0x7
	mov	x16, x15
	b.eq	.LBB8_85
// %bb.83:                              // %.lr.ph.i.prol.preheader
                                        //   in Loop: Header=BB8_76 Depth=1
	mov	x16, x15
	.p2align	5, , 16
.LBB8_84:                               // %.lr.ph.i.prol
                                        //   Parent Loop BB8_76 Depth=1
                                        // =>  This Inner Loop Header: Depth=2
	strh	w20, [x24, x16, lsl #1]
	add	x16, x16, #1
	subs	x17, x17, #1
	b.ne	.LBB8_84
.LBB8_85:                               // %.lr.ph.i.prol.loopexit
                                        //   in Loop: Header=BB8_76 Depth=1
	sub	x15, x15, x9
	cmn	x15, #8
	b.hi	.LBB8_75
// %bb.86:                              // %.lr.ph.i.preheader188.new
                                        //   in Loop: Header=BB8_76 Depth=1
	sub	x15, x9, x16
	lsl	x16, x16, #1
	mov	x17, x14
	.p2align	5, , 16
.LBB8_87:                               // %.lr.ph.i
                                        //   Parent Loop BB8_76 Depth=1
                                        // =>  This Inner Loop Header: Depth=2
	add	x0, x17, x16
	subs	x15, x15, #8
	sturh	w20, [x0, #-14]
	add	x17, x17, #16
	sturh	w20, [x0, #-12]
	sturh	w20, [x0, #-10]
	sturh	w20, [x0, #-8]
	sturh	w20, [x0, #-6]
	sturh	w20, [x0, #-4]
	sturh	w20, [x0, #-2]
	strh	w20, [x0]
	b.ne	.LBB8_87
	b	.LBB8_75
.LBB8_88:                               // %.loopexit
	mov	x0, x19
	.cfi_def_cfa wsp, 96
	ldp	x20, x19, [sp, #80]             // 16-byte Folded Reload
	ldp	x22, x21, [sp, #64]             // 16-byte Folded Reload
	ldp	x24, x23, [sp, #48]             // 16-byte Folded Reload
	ldp	x26, x25, [sp, #32]             // 16-byte Folded Reload
	ldp	x28, x27, [sp, #16]             // 16-byte Folded Reload
	ldp	x29, x30, [sp], #96             // 16-byte Folded Reload
	.cfi_def_cfa_offset 0
	.cfi_restore w19
	.cfi_restore w20
	.cfi_restore w21
	.cfi_restore w22
	.cfi_restore w23
	.cfi_restore w24
	.cfi_restore w25
	.cfi_restore w26
	.cfi_restore w27
	.cfi_restore w28
	.cfi_restore w30
	.cfi_restore w29
	ret
.LBB8_89:                               // %.lr.ph102.new
	.cfi_restore_state
	mov	x26, xzr
	sub	x27, x8, x25
	lsl	x28, x23, #1
	mov	x21, x24
	b	.LBB8_91
	.p2align	5, , 16
.LBB8_90:                               // %ggml_vec_set_i8.exit.1
                                        //   in Loop: Header=BB8_91 Depth=1
	add	x26, x26, #2
	add	x21, x21, x28
	cmp	x27, x26
	b.eq	.LBB8_7
.LBB8_91:                               // =>This Inner Loop Header: Depth=1
	cmp	w22, #1
	b.lt	.LBB8_90
// %bb.92:                              // %.lr.ph.preheader.i
                                        //   in Loop: Header=BB8_91 Depth=1
	and	x2, x22, #0x7fffffff
	mov	x0, x21
	mov	w1, w20
	bl	memset
	add	x0, x21, x23
	and	x2, x22, #0x7fffffff
	mov	w1, w20
	bl	memset
	b	.LBB8_90
.LBB8_93:
	adrp	x0, .L.str.1
	add	x0, x0, :lo12:.L.str.1
	adrp	x2, .L.str.4
	add	x2, x2, :lo12:.L.str.4
	mov	w1, #2774                       // =0xad6
	bl	ggml_abort
.Lfunc_end8:
	.size	ggml_set_i32, .Lfunc_end8-ggml_set_i32
	.cfi_endproc
                                        // -- End function
	.globl	ggml_new_f32                    // -- Begin function ggml_new_f32
	.p2align	4
	.type	ggml_new_f32,@function
ggml_new_f32:                           // @ggml_new_f32
	.cfi_startproc
// %bb.0:
	str	d8, [sp, #-32]!                 // 8-byte Folded Spill
	.cfi_def_cfa_offset 32
	stp	x29, x30, [sp, #8]              // 16-byte Folded Spill
	str	x19, [sp, #24]                  // 8-byte Folded Spill
	add	x29, sp, #8
	.cfi_def_cfa w29, 24
	.cfi_offset w19, -8
	.cfi_offset w30, -16
	.cfi_offset w29, -24
	.cfi_offset b8, -32
	.cfi_remember_state
	fmov	s8, s0
	mov	x19, x0
	bl	ggml_get_no_alloc
	tbnz	w0, #0, .LBB9_2
// %bb.1:
	mov	x0, x19
	mov	w1, wzr
	mov	w2, #1                          // =0x1
	bl	ggml_new_tensor_1d
	fmov	s0, s8
	.cfi_def_cfa wsp, 32
	ldr	x19, [sp, #24]                  // 8-byte Folded Reload
	ldp	x29, x30, [sp, #8]              // 16-byte Folded Reload
	ldr	d8, [sp], #32                   // 8-byte Folded Reload
	.cfi_def_cfa_offset 0
	.cfi_restore w19
	.cfi_restore w30
	.cfi_restore w29
	.cfi_restore b8
	b	ggml_set_f32
.LBB9_2:
	.cfi_restore_state
	adrp	x0, .L.str.1
	add	x0, x0, :lo12:.L.str.1
	adrp	x2, .L.str.2
	add	x2, x2, :lo12:.L.str.2
	adrp	x3, .L.str.3
	add	x3, x3, :lo12:.L.str.3
	mov	w1, #2713                       // =0xa99
	bl	ggml_abort
.Lfunc_end9:
	.size	ggml_new_f32, .Lfunc_end9-ggml_new_f32
	.cfi_endproc
                                        // -- End function
	.globl	ggml_set_f32                    // -- Begin function ggml_set_f32
	.p2align	4
	.type	ggml_set_f32,@function
ggml_set_f32:                           // @ggml_set_f32
	.cfi_startproc
// %bb.0:
	str	d8, [sp, #-112]!                // 8-byte Folded Spill
	.cfi_def_cfa_offset 112
	stp	x29, x30, [sp, #16]             // 16-byte Folded Spill
	stp	x28, x27, [sp, #32]             // 16-byte Folded Spill
	stp	x26, x25, [sp, #48]             // 16-byte Folded Spill
	stp	x24, x23, [sp, #64]             // 16-byte Folded Spill
	stp	x22, x21, [sp, #80]             // 16-byte Folded Spill
	stp	x20, x19, [sp, #96]             // 16-byte Folded Spill
	add	x29, sp, #16
	.cfi_def_cfa w29, 96
	.cfi_offset w19, -8
	.cfi_offset w20, -16
	.cfi_offset w21, -24
	.cfi_offset w22, -32
	.cfi_offset w23, -40
	.cfi_offset w24, -48
	.cfi_offset w25, -56
	.cfi_offset w26, -64
	.cfi_offset w27, -72
	.cfi_offset w28, -80
	.cfi_offset w30, -88
	.cfi_offset w29, -96
	.cfi_offset b8, -112
	.cfi_remember_state
	fmov	s8, s0
	mov	x19, x0
	bl	ggml_nrows
	ldr	x22, [x19, #16]
	ldr	x23, [x19, #56]
	ldr	x24, [x19, #248]
	ldr	w8, [x19]
	cmp	w8, #24
	b.gt	.LBB10_10
// %bb.1:
	cbz	w8, .LBB10_58
// %bb.2:
	cmp	w8, #1
	b.eq	.LBB10_28
// %bb.3:
	cmp	w8, #24
	b.ne	.LBB10_93
// %bb.4:                               // %.preheader
	cmp	w0, #1
	b.lt	.LBB10_88
// %bb.5:                               // %.lr.ph102
	fcvtzs	w20, s8
	and	x8, x0, #0x7fffffff
	and	x25, x0, #0x1
	cmp	x8, #1
	b.ne	.LBB10_89
// %bb.6:
	mov	x26, xzr
.LBB10_7:                               // %.loopexit.loopexit.unr-lcssa
	cbz	x25, .LBB10_88
// %bb.8:                               // %.loopexit.loopexit.unr-lcssa
	cmp	w22, #1
	b.lt	.LBB10_88
// %bb.9:                               // %.lr.ph.preheader.i.epil
	madd	x0, x23, x26, x24
	and	x2, x22, #0x7fffffff
	mov	w1, w20
	bl	memset
	b	.LBB10_88
.LBB10_10:
	cmp	w8, #25
	b.eq	.LBB10_73
// %bb.11:
	cmp	w8, #26
	b.eq	.LBB10_43
// %bb.12:
	cmp	w8, #30
	b.ne	.LBB10_93
// %bb.13:                              // %.preheader88
	cmp	w0, #1
	b.lt	.LBB10_88
// %bb.14:                              // %.lr.ph94
	fmov	w9, s8
	mov	w10, #32767                     // =0x7fff
	mov	w14, #2139095040                // =0x7f800000
	mov	x8, xzr
	add	x15, x24, #14
	ubfx	w13, w9, #16, #1
	and	w11, w9, #0x7fffffff
	lsr	w12, w9, #16
	add	w9, w9, w13
	orr	w12, w12, #0x40
	cmp	w11, w14
	add	x14, x24, #2
	add	w9, w9, w10
	and	x10, x0, #0x7fffffff
	lsr	w13, w9, #16
	and	x9, x22, #0x7fffffff
	csel	w11, w12, w13, hi
	and	x12, x22, #0x1
	sub	x13, x9, x12
	b	.LBB10_16
	.p2align	5, , 16
.LBB10_15:                              // %ggml_vec_set_bf16.exit
                                        //   in Loop: Header=BB10_16 Depth=1
	add	x8, x8, #1
	add	x14, x14, x23
	add	x24, x24, x23
	add	x15, x15, x23
	cmp	x8, x10
	b.eq	.LBB10_88
.LBB10_16:                              // %ggml_compute_fp32_to_bf16.exit
                                        // =>This Loop Header: Depth=1
                                        //     Child Loop BB10_20 Depth 2
                                        //     Child Loop BB10_24 Depth 2
                                        //     Child Loop BB10_27 Depth 2
	cmp	w22, #1
	b.lt	.LBB10_15
// %bb.17:                              // %.lr.ph.i72.preheader
                                        //   in Loop: Header=BB10_16 Depth=1
	cmp	x9, #2
	b.hs	.LBB10_19
// %bb.18:                              //   in Loop: Header=BB10_16 Depth=1
	mov	x16, xzr
	b	.LBB10_22
	.p2align	5, , 16
.LBB10_19:                              // %vector.body151.preheader
                                        //   in Loop: Header=BB10_16 Depth=1
	mov	x16, x13
	mov	x17, x14
	.p2align	5, , 16
.LBB10_20:                              // %vector.body151
                                        //   Parent Loop BB10_16 Depth=1
                                        // =>  This Inner Loop Header: Depth=2
	sturh	w11, [x17, #-2]
	subs	x16, x16, #2
	strh	w11, [x17], #4
	b.ne	.LBB10_20
// %bb.21:                              // %middle.block144
                                        //   in Loop: Header=BB10_16 Depth=1
	mov	x16, x13
	cbz	x12, .LBB10_15
.LBB10_22:                              // %.lr.ph.i72.preheader194
                                        //   in Loop: Header=BB10_16 Depth=1
	sub	w17, w22, w16
	ands	x0, x17, #0x7
	mov	x17, x16
	b.eq	.LBB10_25
// %bb.23:                              // %.lr.ph.i72.prol.preheader
                                        //   in Loop: Header=BB10_16 Depth=1
	mov	x17, x16
	.p2align	5, , 16
.LBB10_24:                              // %.lr.ph.i72.prol
                                        //   Parent Loop BB10_16 Depth=1
                                        // =>  This Inner Loop Header: Depth=2
	strh	w11, [x24, x17, lsl #1]
	add	x17, x17, #1
	subs	x0, x0, #1
	b.ne	.LBB10_24
.LBB10_25:                              // %.lr.ph.i72.prol.loopexit
                                        //   in Loop: Header=BB10_16 Depth=1
	sub	x16, x16, x9
	cmn	x16, #8
	b.hi	.LBB10_15
// %bb.26:                              // %.lr.ph.i72.preheader194.new
                                        //   in Loop: Header=BB10_16 Depth=1
	sub	x16, x9, x17
	lsl	x17, x17, #1
	mov	x0, x15
	.p2align	5, , 16
.LBB10_27:                              // %.lr.ph.i72
                                        //   Parent Loop BB10_16 Depth=1
                                        // =>  This Inner Loop Header: Depth=2
	add	x1, x0, x17
	subs	x16, x16, #8
	sturh	w11, [x1, #-14]
	add	x0, x0, #16
	sturh	w11, [x1, #-12]
	sturh	w11, [x1, #-10]
	sturh	w11, [x1, #-8]
	sturh	w11, [x1, #-6]
	sturh	w11, [x1, #-4]
	sturh	w11, [x1, #-2]
	strh	w11, [x1]
	b.ne	.LBB10_27
	b	.LBB10_15
.LBB10_28:                              // %.preheader86
	cmp	w0, #1
	b.lt	.LBB10_88
// %bb.29:                              // %.lr.ph96
	mov	w9, #2004877312                 // =0x77800000
	fabs	s0, s8
	mov	w10, #125829120                 // =0x7800000
	fmov	s1, w9
	mov	w9, #142606336                  // =0x8800000
	mov	w13, #1073741824                // =0x40000000
	mov	w14, #32256                     // =0x7e00
	mov	x8, xzr
	fmul	s0, s0, s1
	fmov	s1, w9
	fmov	w9, s8
	add	x15, x24, #14
	and	w11, w9, #0x7f800000
	ubfx	w12, w9, #23, #8
	fmul	s0, s0, s1
	add	w10, w11, w10
	cmp	w12, #113
	mov	w11, #-16777216                 // =0xff000000
	csel	w10, w13, w10, lo
	lsl	w13, w9, #1
	lsr	w9, w9, #31
	fmov	s1, w10
	cmp	w13, w11
	and	x11, x0, #0x7fffffff
	fadd	s0, s0, s1
	fmov	w10, s0
	lsr	w12, w10, #13
	and	w10, w10, #0xfff
	and	w12, w12, #0x7c00
	add	w10, w12, w10
	and	x12, x22, #0x1
	csel	w10, w14, w10, hi
	add	x14, x24, #2
	orr	w9, w10, w9, lsl #15
	and	x10, x22, #0x7fffffff
	sub	x13, x10, x12
	b	.LBB10_31
	.p2align	5, , 16
.LBB10_30:                              // %ggml_vec_set_f16.exit
                                        //   in Loop: Header=BB10_31 Depth=1
	add	x8, x8, #1
	add	x14, x14, x23
	add	x24, x24, x23
	add	x15, x15, x23
	cmp	x8, x11
	b.eq	.LBB10_88
.LBB10_31:                              // =>This Loop Header: Depth=1
                                        //     Child Loop BB10_35 Depth 2
                                        //     Child Loop BB10_39 Depth 2
                                        //     Child Loop BB10_42 Depth 2
	cmp	w22, #1
	b.lt	.LBB10_30
// %bb.32:                              // %.lr.ph.i65.preheader
                                        //   in Loop: Header=BB10_31 Depth=1
	cmp	x10, #2
	b.hs	.LBB10_34
// %bb.33:                              //   in Loop: Header=BB10_31 Depth=1
	mov	x16, xzr
	b	.LBB10_37
	.p2align	5, , 16
.LBB10_34:                              // %vector.body162.preheader
                                        //   in Loop: Header=BB10_31 Depth=1
	mov	x16, x13
	mov	x17, x14
	.p2align	5, , 16
.LBB10_35:                              // %vector.body162
                                        //   Parent Loop BB10_31 Depth=1
                                        // =>  This Inner Loop Header: Depth=2
	sturh	w9, [x17, #-2]
	subs	x16, x16, #2
	strh	w9, [x17], #4
	b.ne	.LBB10_35
// %bb.36:                              // %middle.block155
                                        //   in Loop: Header=BB10_31 Depth=1
	mov	x16, x13
	cbz	x12, .LBB10_30
.LBB10_37:                              // %.lr.ph.i65.preheader192
                                        //   in Loop: Header=BB10_31 Depth=1
	sub	w17, w22, w16
	ands	x0, x17, #0x7
	mov	x17, x16
	b.eq	.LBB10_40
// %bb.38:                              // %.lr.ph.i65.prol.preheader
                                        //   in Loop: Header=BB10_31 Depth=1
	mov	x17, x16
	.p2align	5, , 16
.LBB10_39:                              // %.lr.ph.i65.prol
                                        //   Parent Loop BB10_31 Depth=1
                                        // =>  This Inner Loop Header: Depth=2
	strh	w9, [x24, x17, lsl #1]
	add	x17, x17, #1
	subs	x0, x0, #1
	b.ne	.LBB10_39
.LBB10_40:                              // %.lr.ph.i65.prol.loopexit
                                        //   in Loop: Header=BB10_31 Depth=1
	sub	x16, x16, x10
	cmn	x16, #8
	b.hi	.LBB10_30
// %bb.41:                              // %.lr.ph.i65.preheader192.new
                                        //   in Loop: Header=BB10_31 Depth=1
	sub	x16, x10, x17
	lsl	x17, x17, #1
	mov	x0, x15
	.p2align	5, , 16
.LBB10_42:                              // %.lr.ph.i65
                                        //   Parent Loop BB10_31 Depth=1
                                        // =>  This Inner Loop Header: Depth=2
	add	x1, x0, x17
	subs	x16, x16, #8
	sturh	w9, [x1, #-14]
	add	x0, x0, #16
	sturh	w9, [x1, #-12]
	sturh	w9, [x1, #-10]
	sturh	w9, [x1, #-8]
	sturh	w9, [x1, #-6]
	sturh	w9, [x1, #-4]
	sturh	w9, [x1, #-2]
	strh	w9, [x1]
	b.ne	.LBB10_42
	b	.LBB10_30
.LBB10_43:                              // %.preheader84
	cmp	w0, #1
	b.lt	.LBB10_88
// %bb.44:                              // %.lr.ph98
	fcvtzs	w11, s8
	and	x9, x22, #0x7fffffff
	and	x12, x22, #0x1
	mov	x8, xzr
	and	x10, x0, #0x7fffffff
	sub	x13, x9, x12
	add	x14, x24, #4
	add	x15, x24, #28
	b	.LBB10_46
	.p2align	5, , 16
.LBB10_45:                              // %ggml_vec_set_i32.exit
                                        //   in Loop: Header=BB10_46 Depth=1
	add	x8, x8, #1
	add	x14, x14, x23
	add	x24, x24, x23
	add	x15, x15, x23
	cmp	x8, x10
	b.eq	.LBB10_88
.LBB10_46:                              // =>This Loop Header: Depth=1
                                        //     Child Loop BB10_50 Depth 2
                                        //     Child Loop BB10_54 Depth 2
                                        //     Child Loop BB10_57 Depth 2
	cmp	w22, #1
	b.lt	.LBB10_45
// %bb.47:                              // %.lr.ph.i61.preheader
                                        //   in Loop: Header=BB10_46 Depth=1
	cmp	x9, #2
	b.hs	.LBB10_49
// %bb.48:                              //   in Loop: Header=BB10_46 Depth=1
	mov	x16, xzr
	b	.LBB10_52
	.p2align	5, , 16
.LBB10_49:                              // %vector.body173.preheader
                                        //   in Loop: Header=BB10_46 Depth=1
	mov	x16, x13
	mov	x17, x14
	.p2align	5, , 16
.LBB10_50:                              // %vector.body173
                                        //   Parent Loop BB10_46 Depth=1
                                        // =>  This Inner Loop Header: Depth=2
	stp	w11, w11, [x17, #-4]
	add	x17, x17, #8
	subs	x16, x16, #2
	b.ne	.LBB10_50
// %bb.51:                              // %middle.block166
                                        //   in Loop: Header=BB10_46 Depth=1
	mov	x16, x13
	cbz	x12, .LBB10_45
.LBB10_52:                              // %.lr.ph.i61.preheader190
                                        //   in Loop: Header=BB10_46 Depth=1
	sub	w17, w22, w16
	ands	x0, x17, #0x7
	mov	x17, x16
	b.eq	.LBB10_55
// %bb.53:                              // %.lr.ph.i61.prol.preheader
                                        //   in Loop: Header=BB10_46 Depth=1
	mov	x17, x16
	.p2align	5, , 16
.LBB10_54:                              // %.lr.ph.i61.prol
                                        //   Parent Loop BB10_46 Depth=1
                                        // =>  This Inner Loop Header: Depth=2
	str	w11, [x24, x17, lsl #2]
	add	x17, x17, #1
	subs	x0, x0, #1
	b.ne	.LBB10_54
.LBB10_55:                              // %.lr.ph.i61.prol.loopexit
                                        //   in Loop: Header=BB10_46 Depth=1
	sub	x16, x16, x9
	cmn	x16, #8
	b.hi	.LBB10_45
// %bb.56:                              // %.lr.ph.i61.preheader190.new
                                        //   in Loop: Header=BB10_46 Depth=1
	sub	x16, x9, x17
	lsl	x17, x17, #2
	mov	x0, x15
	.p2align	5, , 16
.LBB10_57:                              // %.lr.ph.i61
                                        //   Parent Loop BB10_46 Depth=1
                                        // =>  This Inner Loop Header: Depth=2
	add	x1, x0, x17
	subs	x16, x16, #8
	stp	w11, w11, [x1, #-28]
	add	x0, x0, #32
	stp	w11, w11, [x1, #-20]
	stp	w11, w11, [x1, #-12]
	stp	w11, w11, [x1, #-4]
	b.ne	.LBB10_57
	b	.LBB10_45
.LBB10_58:                              // %.preheader90
	cmp	w0, #1
	b.lt	.LBB10_88
// %bb.59:                              // %.lr.ph
	and	x9, x22, #0x7fffffff
	and	x11, x22, #0x1
	mov	x8, xzr
	and	x10, x0, #0x7fffffff
	sub	x12, x9, x11
	add	x13, x24, #4
	add	x14, x24, #28
	b	.LBB10_61
	.p2align	5, , 16
.LBB10_60:                              // %ggml_vec_set_f32.exit
                                        //   in Loop: Header=BB10_61 Depth=1
	add	x8, x8, #1
	add	x13, x13, x23
	add	x24, x24, x23
	add	x14, x14, x23
	cmp	x8, x10
	b.eq	.LBB10_88
.LBB10_61:                              // =>This Loop Header: Depth=1
                                        //     Child Loop BB10_65 Depth 2
                                        //     Child Loop BB10_69 Depth 2
                                        //     Child Loop BB10_72 Depth 2
	cmp	w22, #1
	b.lt	.LBB10_60
// %bb.62:                              // %.lr.ph.i78.preheader
                                        //   in Loop: Header=BB10_61 Depth=1
	cmp	x9, #2
	b.hs	.LBB10_64
// %bb.63:                              //   in Loop: Header=BB10_61 Depth=1
	mov	x15, xzr
	b	.LBB10_67
	.p2align	5, , 16
.LBB10_64:                              // %vector.body.preheader
                                        //   in Loop: Header=BB10_61 Depth=1
	mov	x15, x12
	mov	x16, x13
	.p2align	5, , 16
.LBB10_65:                              // %vector.body
                                        //   Parent Loop BB10_61 Depth=1
                                        // =>  This Inner Loop Header: Depth=2
	stp	s8, s8, [x16, #-4]
	add	x16, x16, #8
	subs	x15, x15, #2
	b.ne	.LBB10_65
// %bb.66:                              // %middle.block
                                        //   in Loop: Header=BB10_61 Depth=1
	mov	x15, x12
	cbz	x11, .LBB10_60
.LBB10_67:                              // %.lr.ph.i78.preheader196
                                        //   in Loop: Header=BB10_61 Depth=1
	sub	w16, w22, w15
	ands	x17, x16, #0x7
	mov	x16, x15
	b.eq	.LBB10_70
// %bb.68:                              // %.lr.ph.i78.prol.preheader
                                        //   in Loop: Header=BB10_61 Depth=1
	mov	x16, x15
	.p2align	5, , 16
.LBB10_69:                              // %.lr.ph.i78.prol
                                        //   Parent Loop BB10_61 Depth=1
                                        // =>  This Inner Loop Header: Depth=2
	str	s8, [x24, x16, lsl #2]
	add	x16, x16, #1
	subs	x17, x17, #1
	b.ne	.LBB10_69
.LBB10_70:                              // %.lr.ph.i78.prol.loopexit
                                        //   in Loop: Header=BB10_61 Depth=1
	sub	x15, x15, x9
	cmn	x15, #8
	b.hi	.LBB10_60
// %bb.71:                              // %.lr.ph.i78.preheader196.new
                                        //   in Loop: Header=BB10_61 Depth=1
	sub	x15, x9, x16
	lsl	x16, x16, #2
	mov	x17, x14
	.p2align	5, , 16
.LBB10_72:                              // %.lr.ph.i78
                                        //   Parent Loop BB10_61 Depth=1
                                        // =>  This Inner Loop Header: Depth=2
	add	x0, x17, x16
	subs	x15, x15, #8
	stp	s8, s8, [x0, #-28]
	add	x17, x17, #32
	stp	s8, s8, [x0, #-20]
	stp	s8, s8, [x0, #-12]
	stp	s8, s8, [x0, #-4]
	b.ne	.LBB10_72
	b	.LBB10_60
.LBB10_73:                              // %.preheader82
	cmp	w0, #1
	b.lt	.LBB10_88
// %bb.74:                              // %.lr.ph100
	fcvtzs	w11, s8
	and	x9, x22, #0x7fffffff
	and	x12, x22, #0x1
	mov	x8, xzr
	and	x10, x0, #0x7fffffff
	sub	x13, x9, x12
	add	x14, x24, #2
	add	x15, x24, #14
	b	.LBB10_76
	.p2align	5, , 16
.LBB10_75:                              // %ggml_vec_set_i16.exit
                                        //   in Loop: Header=BB10_76 Depth=1
	add	x8, x8, #1
	add	x14, x14, x23
	add	x24, x24, x23
	add	x15, x15, x23
	cmp	x8, x10
	b.eq	.LBB10_88
.LBB10_76:                              // =>This Loop Header: Depth=1
                                        //     Child Loop BB10_80 Depth 2
                                        //     Child Loop BB10_84 Depth 2
                                        //     Child Loop BB10_87 Depth 2
	cmp	w22, #1
	b.lt	.LBB10_75
// %bb.77:                              // %.lr.ph.i.preheader
                                        //   in Loop: Header=BB10_76 Depth=1
	cmp	x9, #2
	b.hs	.LBB10_79
// %bb.78:                              //   in Loop: Header=BB10_76 Depth=1
	mov	x16, xzr
	b	.LBB10_82
	.p2align	5, , 16
.LBB10_79:                              // %vector.body184.preheader
                                        //   in Loop: Header=BB10_76 Depth=1
	mov	x16, x13
	mov	x17, x14
	.p2align	5, , 16
.LBB10_80:                              // %vector.body184
                                        //   Parent Loop BB10_76 Depth=1
                                        // =>  This Inner Loop Header: Depth=2
	sturh	w11, [x17, #-2]
	subs	x16, x16, #2
	strh	w11, [x17], #4
	b.ne	.LBB10_80
// %bb.81:                              // %middle.block177
                                        //   in Loop: Header=BB10_76 Depth=1
	mov	x16, x13
	cbz	x12, .LBB10_75
.LBB10_82:                              // %.lr.ph.i.preheader188
                                        //   in Loop: Header=BB10_76 Depth=1
	sub	w17, w22, w16
	ands	x0, x17, #0x7
	mov	x17, x16
	b.eq	.LBB10_85
// %bb.83:                              // %.lr.ph.i.prol.preheader
                                        //   in Loop: Header=BB10_76 Depth=1
	mov	x17, x16
	.p2align	5, , 16
.LBB10_84:                              // %.lr.ph.i.prol
                                        //   Parent Loop BB10_76 Depth=1
                                        // =>  This Inner Loop Header: Depth=2
	strh	w11, [x24, x17, lsl #1]
	add	x17, x17, #1
	subs	x0, x0, #1
	b.ne	.LBB10_84
.LBB10_85:                              // %.lr.ph.i.prol.loopexit
                                        //   in Loop: Header=BB10_76 Depth=1
	sub	x16, x16, x9
	cmn	x16, #8
	b.hi	.LBB10_75
// %bb.86:                              // %.lr.ph.i.preheader188.new
                                        //   in Loop: Header=BB10_76 Depth=1
	sub	x16, x9, x17
	lsl	x17, x17, #1
	mov	x0, x15
	.p2align	5, , 16
.LBB10_87:                              // %.lr.ph.i
                                        //   Parent Loop BB10_76 Depth=1
                                        // =>  This Inner Loop Header: Depth=2
	add	x1, x0, x17
	subs	x16, x16, #8
	sturh	w11, [x1, #-14]
	add	x0, x0, #16
	sturh	w11, [x1, #-12]
	sturh	w11, [x1, #-10]
	sturh	w11, [x1, #-8]
	sturh	w11, [x1, #-6]
	sturh	w11, [x1, #-4]
	sturh	w11, [x1, #-2]
	strh	w11, [x1]
	b.ne	.LBB10_87
	b	.LBB10_75
.LBB10_88:                              // %.loopexit
	mov	x0, x19
	.cfi_def_cfa wsp, 112
	ldp	x20, x19, [sp, #96]             // 16-byte Folded Reload
	ldp	x22, x21, [sp, #80]             // 16-byte Folded Reload
	ldp	x24, x23, [sp, #64]             // 16-byte Folded Reload
	ldp	x26, x25, [sp, #48]             // 16-byte Folded Reload
	ldp	x28, x27, [sp, #32]             // 16-byte Folded Reload
	ldp	x29, x30, [sp, #16]             // 16-byte Folded Reload
	ldr	d8, [sp], #112                  // 8-byte Folded Reload
	.cfi_def_cfa_offset 0
	.cfi_restore w19
	.cfi_restore w20
	.cfi_restore w21
	.cfi_restore w22
	.cfi_restore w23
	.cfi_restore w24
	.cfi_restore w25
	.cfi_restore w26
	.cfi_restore w27
	.cfi_restore w28
	.cfi_restore w30
	.cfi_restore w29
	.cfi_restore b8
	ret
.LBB10_89:                              // %.lr.ph102.new
	.cfi_restore_state
	mov	x26, xzr
	sub	x27, x8, x25
	lsl	x28, x23, #1
	mov	x21, x24
	b	.LBB10_91
	.p2align	5, , 16
.LBB10_90:                              // %ggml_vec_set_i8.exit.1
                                        //   in Loop: Header=BB10_91 Depth=1
	add	x26, x26, #2
	add	x21, x21, x28
	cmp	x27, x26
	b.eq	.LBB10_7
.LBB10_91:                              // =>This Inner Loop Header: Depth=1
	cmp	w22, #1
	b.lt	.LBB10_90
// %bb.92:                              // %.lr.ph.preheader.i
                                        //   in Loop: Header=BB10_91 Depth=1
	and	x2, x22, #0x7fffffff
	mov	x0, x21
	mov	w1, w20
	bl	memset
	add	x0, x21, x23
	and	x2, x22, #0x7fffffff
	mov	w1, w20
	bl	memset
	b	.LBB10_90
.LBB10_93:
	adrp	x0, .L.str.1
	add	x0, x0, :lo12:.L.str.1
	adrp	x2, .L.str.4
	add	x2, x2, :lo12:.L.str.4
	mov	w1, #2833                       // =0xb11
	bl	ggml_abort
.Lfunc_end10:
	.size	ggml_set_f32, .Lfunc_end10-ggml_set_f32
	.cfi_endproc
                                        // -- End function
	.section	.rodata.cst16,"aM",@progbits,16
	.p2align	4, 0x0                          // -- Begin function ggml_get_i32_1d
.LCPI11_0:
	.xword	0x0000000000000000              // fp128 0
	.xword	0x0000000000000000
	.text
	.globl	ggml_get_i32_1d
	.p2align	4
	.type	ggml_get_i32_1d,@function
ggml_get_i32_1d:                        // @ggml_get_i32_1d
	.cfi_startproc
// %bb.0:
	sub	sp, sp, #64
	.cfi_def_cfa_offset 64
	stp	x29, x30, [sp, #32]             // 16-byte Folded Spill
	stp	x20, x19, [sp, #48]             // 16-byte Folded Spill
	add	x29, sp, #32
	.cfi_def_cfa w29, 32
	.cfi_offset w19, -8
	.cfi_offset w20, -16
	.cfi_offset w30, -24
	.cfi_offset w29, -32
	.cfi_remember_state
	mov	w20, w1
	mov	x19, x0
	bl	ggml_is_contiguous
	tbz	w0, #0, .LBB11_7
// %bb.1:
	ldr	w8, [x19]
	cmp	w8, #24
	b.gt	.LBB11_12
// %bb.2:
	cbz	w8, .LBB11_29
// %bb.3:
	cmp	w8, #1
	b.eq	.LBB11_22
// %bb.4:
	cmp	w8, #24
	b.ne	.LBB11_42
// %bb.5:
	ldr	x8, [x19, #48]
	cmp	x8, #1
	b.ne	.LBB11_36
// %bb.6:
	ldr	x8, [x19, #248]
	ldrsb	w0, [x8, w20, sxtw]
	b	.LBB11_35
.LBB11_7:
	adrp	x8, .LCPI11_0
	sxtw	x1, w20
	ldr	q0, [x8, :lo12:.LCPI11_0]
	mov	x8, sp
	mov	x2, sp
	mov	x0, x19
	orr	x3, x8, #0x8
	add	x4, x8, #16
	add	x5, x8, #24
	stp	q0, q0, [sp]
	bl	ggml_unravel_index
	ldrsw	x8, [sp]
	ldr	x10, [x19, #248]
	ldrsw	x9, [sp, #8]
	ldp	x11, x12, [x19, #48]
	nop
	madd	x8, x11, x8, x10
	ldrsw	x10, [sp, #16]
	nop
	madd	x8, x12, x9, x8
	ldrsw	x11, [sp, #24]
	ldp	x9, x12, [x19, #64]
	nop
	madd	x8, x9, x10, x8
	mul	x9, x12, x11
	ldr	w10, [x19]
	cmp	w10, #24
	b.gt	.LBB11_17
// %bb.8:
	cbz	w10, .LBB11_31
// %bb.9:
	cmp	w10, #1
	b.eq	.LBB11_24
// %bb.10:
	cmp	w10, #24
	b.ne	.LBB11_43
// %bb.11:
	ldrsb	w0, [x8, x9]
	b	.LBB11_35
.LBB11_12:
	cmp	w8, #25
	b.eq	.LBB11_32
// %bb.13:
	cmp	w8, #26
	b.eq	.LBB11_26
// %bb.14:
	cmp	w8, #30
	b.ne	.LBB11_42
// %bb.15:
	ldr	x8, [x19, #48]
	cmp	x8, #2
	b.ne	.LBB11_37
// %bb.16:
	ldr	x8, [x19, #248]
	ldrh	w8, [x8, w20, sxtw #1]
	b	.LBB11_21
.LBB11_17:
	cmp	w10, #25
	b.eq	.LBB11_34
// %bb.18:
	cmp	w10, #26
	b.eq	.LBB11_28
// %bb.19:
	cmp	w10, #30
	b.ne	.LBB11_43
// %bb.20:
	ldrh	w8, [x8, x9]
.LBB11_21:
	lsl	w8, w8, #16
	fmov	s0, w8
	fcvtzs	w0, s0
	b	.LBB11_35
.LBB11_22:
	ldr	x8, [x19, #48]
	cmp	x8, #2
	b.ne	.LBB11_38
// %bb.23:
	ldr	x8, [x19, #248]
	ldrh	w8, [x8, w20, sxtw #1]
	b	.LBB11_25
.LBB11_24:
	ldrh	w8, [x8, x9]
.LBB11_25:
	adrp	x9, :got:ggml_table_f32_f16
	ldr	x9, [x9, :got_lo12:ggml_table_f32_f16]
	ldr	s0, [x9, x8, lsl #2]
	fcvtzs	w0, s0
	b	.LBB11_35
.LBB11_26:
	ldr	x8, [x19, #48]
	cmp	x8, #4
	b.ne	.LBB11_39
// %bb.27:
	ldr	x8, [x19, #248]
	ldr	w0, [x8, w20, sxtw #2]
	b	.LBB11_35
.LBB11_28:
	ldr	w0, [x8, x9]
	b	.LBB11_35
.LBB11_29:
	ldr	x8, [x19, #48]
	cmp	x8, #4
	b.ne	.LBB11_40
// %bb.30:
	ldr	x8, [x19, #248]
	ldr	s0, [x8, w20, sxtw #2]
	fcvtzs	w0, s0
	b	.LBB11_35
.LBB11_31:
	ldr	s0, [x8, x9]
	fcvtzs	w0, s0
	b	.LBB11_35
.LBB11_32:
	ldr	x8, [x19, #48]
	cmp	x8, #2
	b.ne	.LBB11_41
// %bb.33:
	ldr	x8, [x19, #248]
	ldrsh	w0, [x8, w20, sxtw #1]
	b	.LBB11_35
.LBB11_34:
	ldrsh	w0, [x8, x9]
.LBB11_35:
	.cfi_def_cfa wsp, 64
	ldp	x20, x19, [sp, #48]             // 16-byte Folded Reload
	ldp	x29, x30, [sp, #32]             // 16-byte Folded Reload
	add	sp, sp, #64
	.cfi_def_cfa_offset 0
	.cfi_restore w19
	.cfi_restore w20
	.cfi_restore w30
	.cfi_restore w29
	ret
.LBB11_36:
	.cfi_restore_state
	adrp	x0, .L.str.1
	add	x0, x0, :lo12:.L.str.1
	adrp	x2, .L.str.2
	add	x2, x2, :lo12:.L.str.2
	adrp	x3, .L.str.5
	add	x3, x3, :lo12:.L.str.5
	mov	w1, #2849                       // =0xb21
	bl	ggml_abort
.LBB11_37:
	adrp	x0, .L.str.1
	add	x0, x0, :lo12:.L.str.1
	adrp	x2, .L.str.2
	add	x2, x2, :lo12:.L.str.2
	adrp	x3, .L.str.9
	add	x3, x3, :lo12:.L.str.9
	mov	w1, #2869                       // =0xb35
	bl	ggml_abort
.LBB11_38:
	adrp	x0, .L.str.1
	add	x0, x0, :lo12:.L.str.1
	adrp	x2, .L.str.2
	add	x2, x2, :lo12:.L.str.2
	adrp	x3, .L.str.8
	add	x3, x3, :lo12:.L.str.8
	mov	w1, #2864                       // =0xb30
	bl	ggml_abort
.LBB11_39:
	adrp	x0, .L.str.1
	add	x0, x0, :lo12:.L.str.1
	adrp	x2, .L.str.2
	add	x2, x2, :lo12:.L.str.2
	adrp	x3, .L.str.7
	add	x3, x3, :lo12:.L.str.7
	mov	w1, #2859                       // =0xb2b
	bl	ggml_abort
.LBB11_40:
	adrp	x0, .L.str.1
	add	x0, x0, :lo12:.L.str.1
	adrp	x2, .L.str.2
	add	x2, x2, :lo12:.L.str.2
	adrp	x3, .L.str.10
	add	x3, x3, :lo12:.L.str.10
	mov	w1, #2874                       // =0xb3a
	bl	ggml_abort
.LBB11_41:
	adrp	x0, .L.str.1
	add	x0, x0, :lo12:.L.str.1
	adrp	x2, .L.str.2
	add	x2, x2, :lo12:.L.str.2
	adrp	x3, .L.str.6
	add	x3, x3, :lo12:.L.str.6
	mov	w1, #2854                       // =0xb26
	bl	ggml_abort
.LBB11_42:
	adrp	x0, .L.str.1
	add	x0, x0, :lo12:.L.str.1
	adrp	x2, .L.str.4
	add	x2, x2, :lo12:.L.str.4
	mov	w1, #2879                       // =0xb3f
	bl	ggml_abort
.LBB11_43:
	adrp	x0, .L.str.1
	add	x0, x0, :lo12:.L.str.1
	adrp	x2, .L.str.4
	add	x2, x2, :lo12:.L.str.4
	mov	w1, #2945                       // =0xb81
	bl	ggml_abort
.Lfunc_end11:
	.size	ggml_get_i32_1d, .Lfunc_end11-ggml_get_i32_1d
	.cfi_endproc
                                        // -- End function
	.globl	ggml_get_i32_nd                 // -- Begin function ggml_get_i32_nd
	.p2align	4
	.type	ggml_get_i32_nd,@function
ggml_get_i32_nd:                        // @ggml_get_i32_nd
	.cfi_startproc
// %bb.0:
	ldr	x8, [x0, #248]
                                        // kill: def $w1 killed $w1 def $x1
	sxtw	x9, w1
                                        // kill: def $w2 killed $w2 def $x2
                                        // kill: def $w3 killed $w3 def $x3
                                        // kill: def $w4 killed $w4 def $x4
	ldp	x10, x11, [x0, #48]
	nop
	madd	x8, x10, x9, x8
	sxtw	x9, w2
	madd	x8, x11, x9, x8
	sxtw	x9, w3
	ldp	x10, x11, [x0, #64]
	nop
	madd	x8, x10, x9, x8
	sxtw	x9, w4
	ldr	w10, [x0]
	mul	x9, x11, x9
	cmp	w10, #24
	b.gt	.LBB12_5
// %bb.1:
	cbz	w10, .LBB12_11
// %bb.2:
	cmp	w10, #1
	b.eq	.LBB12_9
// %bb.3:
	cmp	w10, #24
	b.ne	.LBB12_13
// %bb.4:
	ldrsb	w0, [x8, x9]
	ret
.LBB12_5:
	cmp	w10, #25
	b.eq	.LBB12_12
// %bb.6:
	cmp	w10, #26
	b.eq	.LBB12_10
// %bb.7:
	cmp	w10, #30
	b.ne	.LBB12_13
// %bb.8:
	ldrh	w8, [x8, x9]
	lsl	w8, w8, #16
	fmov	s0, w8
	fcvtzs	w0, s0
	ret
.LBB12_9:
	ldrh	w8, [x8, x9]
	adrp	x9, :got:ggml_table_f32_f16
	ldr	x9, [x9, :got_lo12:ggml_table_f32_f16]
	ldr	s0, [x9, x8, lsl #2]
	fcvtzs	w0, s0
	ret
.LBB12_10:
	ldr	w0, [x8, x9]
	ret
.LBB12_11:
	ldr	s0, [x8, x9]
	fcvtzs	w0, s0
	ret
.LBB12_12:
	ldrsh	w0, [x8, x9]
	ret
.LBB12_13:
	stp	x29, x30, [sp, #-16]!           // 16-byte Folded Spill
	.cfi_def_cfa_offset 16
	mov	x29, sp
	.cfi_def_cfa w29, 16
	.cfi_offset w30, -8
	.cfi_offset w29, -16
	adrp	x0, .L.str.1
	add	x0, x0, :lo12:.L.str.1
	adrp	x2, .L.str.4
	add	x2, x2, :lo12:.L.str.4
	mov	w1, #2945                       // =0xb81
	bl	ggml_abort
.Lfunc_end12:
	.size	ggml_get_i32_nd, .Lfunc_end12-ggml_get_i32_nd
	.cfi_endproc
                                        // -- End function
	.section	.rodata.cst16,"aM",@progbits,16
	.p2align	4, 0x0                          // -- Begin function ggml_set_i32_1d
.LCPI13_0:
	.xword	0x0000000000000000              // fp128 0
	.xword	0x0000000000000000
	.text
	.globl	ggml_set_i32_1d
	.p2align	4
	.type	ggml_set_i32_1d,@function
ggml_set_i32_1d:                        // @ggml_set_i32_1d
	.cfi_startproc
// %bb.0:
	sub	sp, sp, #80
	.cfi_def_cfa_offset 80
	stp	x29, x30, [sp, #32]             // 16-byte Folded Spill
	str	x21, [sp, #48]                  // 8-byte Folded Spill
	stp	x20, x19, [sp, #64]             // 16-byte Folded Spill
	add	x29, sp, #32
	.cfi_def_cfa w29, 48
	.cfi_offset w19, -8
	.cfi_offset w20, -16
	.cfi_offset w21, -32
	.cfi_offset w30, -40
	.cfi_offset w29, -48
	.cfi_remember_state
	mov	w21, w2
	mov	w19, w1
	mov	x20, x0
	bl	ggml_is_contiguous
	tbz	w0, #0, .LBB13_7
// %bb.1:
	ldr	w8, [x20]
	cmp	w8, #24
	b.gt	.LBB13_9
// %bb.2:
	cbz	w8, .LBB13_19
// %bb.3:
	cmp	w8, #1
	b.eq	.LBB13_15
// %bb.4:
	cmp	w8, #24
	b.ne	.LBB13_30
// %bb.5:
	ldr	x8, [x20, #48]
	cmp	x8, #1
	b.ne	.LBB13_24
// %bb.6:
	ldr	x8, [x20, #248]
	strb	w21, [x8, w19, sxtw]
	b	.LBB13_8
.LBB13_7:
	adrp	x8, .LCPI13_0
                                        // kill: def $w19 killed $w19 killed $x19 def $x19
	sxtw	x1, w19
	ldr	q0, [x8, :lo12:.LCPI13_0]
	mov	x8, sp
	mov	x2, sp
	mov	x0, x20
	orr	x3, x8, #0x8
	add	x4, x8, #16
	add	x5, x8, #24
	stp	q0, q0, [sp]
	bl	ggml_unravel_index
	ldr	w1, [sp]
	mov	x0, x20
	mov	w5, w21
	ldr	w2, [sp, #8]
	ldr	w3, [sp, #16]
	ldr	w4, [sp, #24]
	bl	ggml_set_i32_nd
.LBB13_8:
	.cfi_def_cfa wsp, 80
	ldp	x20, x19, [sp, #64]             // 16-byte Folded Reload
	ldr	x21, [sp, #48]                  // 8-byte Folded Reload
	ldp	x29, x30, [sp, #32]             // 16-byte Folded Reload
	add	sp, sp, #80
	.cfi_def_cfa_offset 0
	.cfi_restore w19
	.cfi_restore w20
	.cfi_restore w21
	.cfi_restore w30
	.cfi_restore w29
	ret
.LBB13_9:
	.cfi_restore_state
	cmp	w8, #25
	b.eq	.LBB13_21
// %bb.10:
	cmp	w8, #26
	b.eq	.LBB13_17
// %bb.11:
	cmp	w8, #30
	b.ne	.LBB13_30
// %bb.12:
	ldr	x8, [x20, #48]
	cmp	x8, #2
	b.ne	.LBB13_25
// %bb.13:
	scvtf	s0, w21
	mov	w11, #1                         // =0x1
	ldr	x8, [x20, #248]
	movk	w11, #32640, lsl #16
	fmov	w9, s0
	and	w10, w9, #0x7fffffff
	cmp	w10, w11
	b.lo	.LBB13_23
// %bb.14:
	lsr	w9, w9, #16
	orr	w9, w9, #0x40
	strh	w9, [x8, w19, sxtw #1]
	b	.LBB13_8
.LBB13_15:
	ldr	x8, [x20, #48]
	cmp	x8, #2
	b.ne	.LBB13_26
// %bb.16:
	scvtf	s0, w21
	mov	w8, #2004877312                 // =0x77800000
	fmov	s2, w8
	mov	w8, #142606336                  // =0x8800000
	mov	w11, #125829120                 // =0x7800000
	fabs	s1, s0
	fmul	s1, s1, s2
	fmov	s2, w8
	fmov	w8, s0
	and	w10, w8, #0x7f800000
	fmul	s1, s1, s2
	lsl	w9, w8, #1
	add	w10, w10, w11
	ubfx	w11, w8, #23, #8
	lsr	w8, w8, #31
	cmp	w11, #113
	mov	w11, #1073741824                // =0x40000000
	csel	w10, w11, w10, lo
	fmov	s0, w10
	fadd	s0, s1, s0
	fmov	w10, s0
	lsr	w11, w10, #13
	and	w10, w10, #0xfff
	and	w11, w11, #0x7c00
	add	w10, w11, w10
	mov	w11, #-16777216                 // =0xff000000
	cmp	w9, w11
	mov	w9, #32256                      // =0x7e00
	csel	w9, w9, w10, hi
	orr	w8, w9, w8, lsl #15
	ldr	x9, [x20, #248]
	strh	w8, [x9, w19, sxtw #1]
	b	.LBB13_8
.LBB13_17:
	ldr	x8, [x20, #48]
	cmp	x8, #4
	b.ne	.LBB13_27
// %bb.18:
	ldr	x8, [x20, #248]
	str	w21, [x8, w19, sxtw #2]
	b	.LBB13_8
.LBB13_19:
	ldr	x8, [x20, #48]
	cmp	x8, #4
	b.ne	.LBB13_28
// %bb.20:
	scvtf	s0, w21
	ldr	x8, [x20, #248]
	str	s0, [x8, w19, sxtw #2]
	b	.LBB13_8
.LBB13_21:
	ldr	x8, [x20, #48]
	cmp	x8, #2
	b.ne	.LBB13_29
// %bb.22:
	ldr	x8, [x20, #248]
	strh	w21, [x8, w19, sxtw #1]
	b	.LBB13_8
.LBB13_23:
	mov	w11, #32767                     // =0x7fff
	ubfx	w10, w9, #16, #1
	add	w9, w9, w11
	add	w9, w9, w10
	lsr	w9, w9, #16
	strh	w9, [x8, w19, sxtw #1]
	b	.LBB13_8
.LBB13_24:
	adrp	x0, .L.str.1
	add	x0, x0, :lo12:.L.str.1
	adrp	x2, .L.str.2
	add	x2, x2, :lo12:.L.str.2
	adrp	x3, .L.str.5
	add	x3, x3, :lo12:.L.str.5
	mov	w1, #2894                       // =0xb4e
	bl	ggml_abort
.LBB13_25:
	adrp	x0, .L.str.1
	add	x0, x0, :lo12:.L.str.1
	adrp	x2, .L.str.2
	add	x2, x2, :lo12:.L.str.2
	adrp	x3, .L.str.9
	add	x3, x3, :lo12:.L.str.9
	mov	w1, #2914                       // =0xb62
	bl	ggml_abort
.LBB13_26:
	adrp	x0, .L.str.1
	add	x0, x0, :lo12:.L.str.1
	adrp	x2, .L.str.2
	add	x2, x2, :lo12:.L.str.2
	adrp	x3, .L.str.8
	add	x3, x3, :lo12:.L.str.8
	mov	w1, #2909                       // =0xb5d
	bl	ggml_abort
.LBB13_27:
	adrp	x0, .L.str.1
	add	x0, x0, :lo12:.L.str.1
	adrp	x2, .L.str.2
	add	x2, x2, :lo12:.L.str.2
	adrp	x3, .L.str.7
	add	x3, x3, :lo12:.L.str.7
	mov	w1, #2904                       // =0xb58
	bl	ggml_abort
.LBB13_28:
	adrp	x0, .L.str.1
	add	x0, x0, :lo12:.L.str.1
	adrp	x2, .L.str.2
	add	x2, x2, :lo12:.L.str.2
	adrp	x3, .L.str.10
	add	x3, x3, :lo12:.L.str.10
	mov	w1, #2919                       // =0xb67
	bl	ggml_abort
.LBB13_29:
	adrp	x0, .L.str.1
	add	x0, x0, :lo12:.L.str.1
	adrp	x2, .L.str.2
	add	x2, x2, :lo12:.L.str.2
	adrp	x3, .L.str.6
	add	x3, x3, :lo12:.L.str.6
	mov	w1, #2899                       // =0xb53
	bl	ggml_abort
.LBB13_30:
	adrp	x0, .L.str.1
	add	x0, x0, :lo12:.L.str.1
	adrp	x2, .L.str.4
	add	x2, x2, :lo12:.L.str.4
	mov	w1, #2924                       // =0xb6c
	bl	ggml_abort
.Lfunc_end13:
	.size	ggml_set_i32_1d, .Lfunc_end13-ggml_set_i32_1d
	.cfi_endproc
                                        // -- End function
	.globl	ggml_set_i32_nd                 // -- Begin function ggml_set_i32_nd
	.p2align	4
	.type	ggml_set_i32_nd,@function
ggml_set_i32_nd:                        // @ggml_set_i32_nd
	.cfi_startproc
// %bb.0:
	ldr	x8, [x0, #248]
                                        // kill: def $w1 killed $w1 def $x1
	sxtw	x9, w1
                                        // kill: def $w2 killed $w2 def $x2
                                        // kill: def $w3 killed $w3 def $x3
                                        // kill: def $w4 killed $w4 def $x4
	ldp	x10, x11, [x0, #48]
	nop
	madd	x8, x10, x9, x8
	sxtw	x9, w2
	madd	x8, x11, x9, x8
	sxtw	x9, w3
	ldp	x10, x11, [x0, #64]
	nop
	madd	x8, x10, x9, x8
	sxtw	x9, w4
	ldr	w10, [x0]
	mul	x9, x11, x9
	cmp	w10, #24
	b.gt	.LBB14_5
// %bb.1:
	cbz	w10, .LBB14_12
// %bb.2:
	cmp	w10, #1
	b.eq	.LBB14_10
// %bb.3:
	cmp	w10, #24
	b.ne	.LBB14_15
// %bb.4:
	strb	w5, [x8, x9]
	ret
.LBB14_5:
	cmp	w10, #25
	b.eq	.LBB14_13
// %bb.6:
	cmp	w10, #26
	b.eq	.LBB14_11
// %bb.7:
	cmp	w10, #30
	b.ne	.LBB14_15
// %bb.8:
	scvtf	s0, w5
	mov	w12, #1                         // =0x1
	movk	w12, #32640, lsl #16
	fmov	w10, s0
	and	w11, w10, #0x7fffffff
	cmp	w11, w12
	b.lo	.LBB14_14
// %bb.9:
	lsr	w10, w10, #16
	orr	w10, w10, #0x40
	strh	w10, [x8, x9]
	ret
.LBB14_10:
	scvtf	s0, w5
	mov	w10, #2004877312                // =0x77800000
	fmov	s2, w10
	mov	w10, #142606336                 // =0x8800000
	mov	w13, #125829120                 // =0x7800000
	fabs	s1, s0
	fmul	s1, s1, s2
	fmov	s2, w10
	fmov	w10, s0
	and	w12, w10, #0x7f800000
	fmul	s1, s1, s2
	lsl	w11, w10, #1
	add	w12, w12, w13
	ubfx	w13, w10, #23, #8
	lsr	w10, w10, #31
	cmp	w13, #113
	mov	w13, #1073741824                // =0x40000000
	csel	w12, w13, w12, lo
	fmov	s0, w12
	fadd	s0, s1, s0
	fmov	w12, s0
	lsr	w13, w12, #13
	and	w12, w12, #0xfff
	and	w13, w13, #0x7c00
	add	w12, w13, w12
	mov	w13, #-16777216                 // =0xff000000
	cmp	w11, w13
	mov	w11, #32256                     // =0x7e00
	csel	w11, w11, w12, hi
	orr	w10, w11, w10, lsl #15
	strh	w10, [x8, x9]
	ret
.LBB14_11:
	str	w5, [x8, x9]
	ret
.LBB14_12:
	scvtf	s0, w5
	str	s0, [x8, x9]
	ret
.LBB14_13:
	strh	w5, [x8, x9]
	ret
.LBB14_14:
	mov	w12, #32767                     // =0x7fff
	ubfx	w11, w10, #16, #1
	add	w10, w10, w12
	add	w10, w10, w11
	lsr	w10, w10, #16
	strh	w10, [x8, x9]
	ret
.LBB14_15:
	stp	x29, x30, [sp, #-16]!           // 16-byte Folded Spill
	.cfi_def_cfa_offset 16
	mov	x29, sp
	.cfi_def_cfa w29, 16
	.cfi_offset w30, -8
	.cfi_offset w29, -16
	adrp	x0, .L.str.1
	add	x0, x0, :lo12:.L.str.1
	adrp	x2, .L.str.4
	add	x2, x2, :lo12:.L.str.4
	mov	w1, #2978                       // =0xba2
	bl	ggml_abort
.Lfunc_end14:
	.size	ggml_set_i32_nd, .Lfunc_end14-ggml_set_i32_nd
	.cfi_endproc
                                        // -- End function
	.section	.rodata.cst16,"aM",@progbits,16
	.p2align	4, 0x0                          // -- Begin function ggml_get_f32_1d
.LCPI15_0:
	.xword	0x0000000000000000              // fp128 0
	.xword	0x0000000000000000
	.text
	.globl	ggml_get_f32_1d
	.p2align	4
	.type	ggml_get_f32_1d,@function
ggml_get_f32_1d:                        // @ggml_get_f32_1d
	.cfi_startproc
// %bb.0:
	sub	sp, sp, #64
	.cfi_def_cfa_offset 64
	stp	x29, x30, [sp, #32]             // 16-byte Folded Spill
	stp	x20, x19, [sp, #48]             // 16-byte Folded Spill
	add	x29, sp, #32
	.cfi_def_cfa w29, 32
	.cfi_offset w19, -8
	.cfi_offset w20, -16
	.cfi_offset w30, -24
	.cfi_offset w29, -32
	.cfi_remember_state
	mov	w20, w1
	mov	x19, x0
	bl	ggml_is_contiguous
	tbz	w0, #0, .LBB15_6
// %bb.1:
	ldr	w8, [x19]
	cmp	w8, #24
	b.gt	.LBB15_11
// %bb.2:
	cbz	w8, .LBB15_25
// %bb.3:
	cmp	w8, #1
	b.eq	.LBB15_20
// %bb.4:
	cmp	w8, #24
	b.ne	.LBB15_31
// %bb.5:
	ldr	x8, [x19, #248]
	ldrsb	w8, [x8, w20, sxtw]
	b	.LBB15_29
.LBB15_6:
	adrp	x8, .LCPI15_0
	sxtw	x1, w20
	ldr	q0, [x8, :lo12:.LCPI15_0]
	mov	x8, sp
	mov	x2, sp
	mov	x0, x19
	orr	x3, x8, #0x8
	add	x4, x8, #16
	add	x5, x8, #24
	stp	q0, q0, [sp]
	bl	ggml_unravel_index
	ldrsw	x8, [sp]
	ldr	x10, [x19, #248]
	ldrsw	x9, [sp, #8]
	ldp	x11, x12, [x19, #48]
	nop
	madd	x8, x11, x8, x10
	ldrsw	x10, [sp, #16]
	nop
	madd	x8, x12, x9, x8
	ldrsw	x11, [sp, #24]
	ldp	x9, x12, [x19, #64]
	nop
	madd	x8, x9, x10, x8
	mul	x9, x12, x11
	ldr	w10, [x19]
	cmp	w10, #24
	b.gt	.LBB15_15
// %bb.7:
	cbz	w10, .LBB15_26
// %bb.8:
	cmp	w10, #1
	b.eq	.LBB15_21
// %bb.9:
	cmp	w10, #24
	b.ne	.LBB15_32
// %bb.10:
	ldrsb	w8, [x8, x9]
	b	.LBB15_29
.LBB15_11:
	cmp	w8, #25
	b.eq	.LBB15_27
// %bb.12:
	cmp	w8, #26
	b.eq	.LBB15_23
// %bb.13:
	cmp	w8, #30
	b.ne	.LBB15_31
// %bb.14:
	ldr	x8, [x19, #248]
	ldrh	w8, [x8, w20, sxtw #1]
	b	.LBB15_19
.LBB15_15:
	cmp	w10, #25
	b.eq	.LBB15_28
// %bb.16:
	cmp	w10, #26
	b.eq	.LBB15_24
// %bb.17:
	cmp	w10, #30
	b.ne	.LBB15_32
// %bb.18:
	ldrh	w8, [x8, x9]
.LBB15_19:
	lsl	w8, w8, #16
	fmov	s0, w8
	b	.LBB15_30
.LBB15_20:
	ldr	x8, [x19, #248]
	ldrh	w8, [x8, w20, sxtw #1]
	b	.LBB15_22
.LBB15_21:
	ldrh	w8, [x8, x9]
.LBB15_22:
	adrp	x9, :got:ggml_table_f32_f16
	ldr	x9, [x9, :got_lo12:ggml_table_f32_f16]
	ldr	s0, [x9, x8, lsl #2]
	b	.LBB15_30
.LBB15_23:
	ldr	x8, [x19, #248]
	ldr	w8, [x8, w20, sxtw #2]
	b	.LBB15_29
.LBB15_24:
	ldr	w8, [x8, x9]
	b	.LBB15_29
.LBB15_25:
	ldr	x8, [x19, #248]
	ldr	s0, [x8, w20, sxtw #2]
	b	.LBB15_30
.LBB15_26:
	ldr	s0, [x8, x9]
	b	.LBB15_30
.LBB15_27:
	ldr	x8, [x19, #248]
	ldrsh	w8, [x8, w20, sxtw #1]
	b	.LBB15_29
.LBB15_28:
	ldrsh	w8, [x8, x9]
.LBB15_29:
	scvtf	s0, w8
.LBB15_30:
	.cfi_def_cfa wsp, 64
	ldp	x20, x19, [sp, #48]             // 16-byte Folded Reload
	ldp	x29, x30, [sp, #32]             // 16-byte Folded Reload
	add	sp, sp, #64
	.cfi_def_cfa_offset 0
	.cfi_restore w19
	.cfi_restore w20
	.cfi_restore w30
	.cfi_restore w29
	ret
.LBB15_31:
	.cfi_restore_state
	adrp	x0, .L.str.1
	add	x0, x0, :lo12:.L.str.1
	adrp	x2, .L.str.4
	add	x2, x2, :lo12:.L.str.4
	mov	w1, #3016                       // =0xbc8
	bl	ggml_abort
.LBB15_32:
	adrp	x0, .L.str.1
	add	x0, x0, :lo12:.L.str.1
	adrp	x2, .L.str.4
	add	x2, x2, :lo12:.L.str.4
	mov	w1, #3076                       // =0xc04
	bl	ggml_abort
.Lfunc_end15:
	.size	ggml_get_f32_1d, .Lfunc_end15-ggml_get_f32_1d
	.cfi_endproc
                                        // -- End function
	.globl	ggml_get_f32_nd                 // -- Begin function ggml_get_f32_nd
	.p2align	4
	.type	ggml_get_f32_nd,@function
ggml_get_f32_nd:                        // @ggml_get_f32_nd
	.cfi_startproc
// %bb.0:
	ldr	x8, [x0, #248]
                                        // kill: def $w1 killed $w1 def $x1
	sxtw	x9, w1
                                        // kill: def $w2 killed $w2 def $x2
                                        // kill: def $w3 killed $w3 def $x3
                                        // kill: def $w4 killed $w4 def $x4
	ldp	x10, x11, [x0, #48]
	nop
	madd	x8, x10, x9, x8
	sxtw	x9, w2
	madd	x8, x11, x9, x8
	sxtw	x9, w3
	ldp	x10, x11, [x0, #64]
	nop
	madd	x8, x10, x9, x8
	sxtw	x9, w4
	ldr	w10, [x0]
	mul	x9, x11, x9
	cmp	w10, #24
	b.gt	.LBB16_5
// %bb.1:
	cbz	w10, .LBB16_11
// %bb.2:
	cmp	w10, #1
	b.eq	.LBB16_9
// %bb.3:
	cmp	w10, #24
	b.ne	.LBB16_13
// %bb.4:
	ldrsb	w8, [x8, x9]
	scvtf	s0, w8
	ret
.LBB16_5:
	cmp	w10, #25
	b.eq	.LBB16_12
// %bb.6:
	cmp	w10, #26
	b.eq	.LBB16_10
// %bb.7:
	cmp	w10, #30
	b.ne	.LBB16_13
// %bb.8:
	ldrh	w8, [x8, x9]
	lsl	w8, w8, #16
	fmov	s0, w8
	ret
.LBB16_9:
	ldrh	w8, [x8, x9]
	adrp	x9, :got:ggml_table_f32_f16
	ldr	x9, [x9, :got_lo12:ggml_table_f32_f16]
	ldr	s0, [x9, x8, lsl #2]
	ret
.LBB16_10:
	ldr	w8, [x8, x9]
	scvtf	s0, w8
	ret
.LBB16_11:
	ldr	s0, [x8, x9]
	ret
.LBB16_12:
	ldrsh	w8, [x8, x9]
	scvtf	s0, w8
	ret
.LBB16_13:
	stp	x29, x30, [sp, #-16]!           // 16-byte Folded Spill
	.cfi_def_cfa_offset 16
	mov	x29, sp
	.cfi_def_cfa w29, 16
	.cfi_offset w30, -8
	.cfi_offset w29, -16
	adrp	x0, .L.str.1
	add	x0, x0, :lo12:.L.str.1
	adrp	x2, .L.str.4
	add	x2, x2, :lo12:.L.str.4
	mov	w1, #3076                       // =0xc04
	bl	ggml_abort
.Lfunc_end16:
	.size	ggml_get_f32_nd, .Lfunc_end16-ggml_get_f32_nd
	.cfi_endproc
                                        // -- End function
	.section	.rodata.cst16,"aM",@progbits,16
	.p2align	4, 0x0                          // -- Begin function ggml_set_f32_1d
.LCPI17_0:
	.xword	0x0000000000000000              // fp128 0
	.xword	0x0000000000000000
	.text
	.globl	ggml_set_f32_1d
	.p2align	4
	.type	ggml_set_f32_1d,@function
ggml_set_f32_1d:                        // @ggml_set_f32_1d
	.cfi_startproc
// %bb.0:
	sub	sp, sp, #80
	.cfi_def_cfa_offset 80
	str	d8, [sp, #32]                   // 8-byte Folded Spill
	stp	x29, x30, [sp, #48]             // 16-byte Folded Spill
	stp	x20, x19, [sp, #64]             // 16-byte Folded Spill
	add	x29, sp, #48
	.cfi_def_cfa w29, 32
	.cfi_offset w19, -8
	.cfi_offset w20, -16
	.cfi_offset w30, -24
	.cfi_offset w29, -32
	.cfi_offset b8, -48
	.cfi_remember_state
	fmov	s8, s0
	mov	w19, w1
	mov	x20, x0
	bl	ggml_is_contiguous
	tbz	w0, #0, .LBB17_6
// %bb.1:
	ldr	w8, [x20]
	cmp	w8, #24
	b.gt	.LBB17_7
// %bb.2:
	cbz	w8, .LBB17_14
// %bb.3:
	cmp	w8, #1
	b.eq	.LBB17_12
// %bb.4:
	cmp	w8, #24
	b.ne	.LBB17_19
// %bb.5:
	fcvtzs	w8, s8
	ldr	x9, [x20, #248]
	strb	w8, [x9, w19, sxtw]
	b	.LBB17_17
.LBB17_6:
	adrp	x8, .LCPI17_0
                                        // kill: def $w19 killed $w19 killed $x19 def $x19
	sxtw	x1, w19
	ldr	q0, [x8, :lo12:.LCPI17_0]
	mov	x8, sp
	mov	x2, sp
	mov	x0, x20
	orr	x3, x8, #0x8
	add	x4, x8, #16
	add	x5, x8, #24
	stp	q0, q0, [sp]
	bl	ggml_unravel_index
	ldr	w1, [sp]
	fmov	s0, s8
	mov	x0, x20
	ldr	w2, [sp, #8]
	ldr	w3, [sp, #16]
	ldr	w4, [sp, #24]
	bl	ggml_set_f32_nd
	b	.LBB17_17
.LBB17_7:
	cmp	w8, #25
	b.eq	.LBB17_15
// %bb.8:
	cmp	w8, #26
	b.eq	.LBB17_13
// %bb.9:
	cmp	w8, #30
	b.ne	.LBB17_19
// %bb.10:
	fmov	w9, s8
	mov	w11, #1                         // =0x1
	movk	w11, #32640, lsl #16
	ldr	x8, [x20, #248]
	and	w10, w9, #0x7fffffff
	cmp	w10, w11
	b.lo	.LBB17_18
// %bb.11:
	lsr	w9, w9, #16
	orr	w9, w9, #0x40
	strh	w9, [x8, w19, sxtw #1]
	b	.LBB17_17
.LBB17_12:
	mov	w8, #2004877312                 // =0x77800000
	fabs	s0, s8
	mov	w11, #125829120                 // =0x7800000
	fmov	s1, w8
	mov	w8, #142606336                  // =0x8800000
	fmul	s0, s0, s1
	fmov	s1, w8
	fmov	w8, s8
	and	w10, w8, #0x7f800000
	fmul	s0, s0, s1
	lsl	w9, w8, #1
	add	w10, w10, w11
	ubfx	w11, w8, #23, #8
	lsr	w8, w8, #31
	cmp	w11, #113
	mov	w11, #1073741824                // =0x40000000
	csel	w10, w11, w10, lo
	fmov	s1, w10
	fadd	s0, s0, s1
	fmov	w10, s0
	lsr	w11, w10, #13
	and	w10, w10, #0xfff
	and	w11, w11, #0x7c00
	add	w10, w11, w10
	mov	w11, #-16777216                 // =0xff000000
	cmp	w9, w11
	mov	w9, #32256                      // =0x7e00
	csel	w9, w9, w10, hi
	orr	w8, w9, w8, lsl #15
	b	.LBB17_16
.LBB17_13:
	fcvtzs	w8, s8
	ldr	x9, [x20, #248]
	str	w8, [x9, w19, sxtw #2]
	b	.LBB17_17
.LBB17_14:
	ldr	x8, [x20, #248]
	str	s8, [x8, w19, sxtw #2]
	b	.LBB17_17
.LBB17_15:
	fcvtzs	w8, s8
.LBB17_16:
	ldr	x9, [x20, #248]
	strh	w8, [x9, w19, sxtw #1]
.LBB17_17:
	.cfi_def_cfa wsp, 80
	ldr	d8, [sp, #32]                   // 8-byte Folded Reload
	ldp	x20, x19, [sp, #64]             // 16-byte Folded Reload
	ldp	x29, x30, [sp, #48]             // 16-byte Folded Reload
	add	sp, sp, #80
	.cfi_def_cfa_offset 0
	.cfi_restore w19
	.cfi_restore w20
	.cfi_restore w30
	.cfi_restore w29
	.cfi_restore b8
	ret
.LBB17_18:
	.cfi_restore_state
	ubfx	w10, w9, #16, #1
	add	w9, w9, w10
	mov	w10, #32767                     // =0x7fff
	add	w9, w9, w10
	lsr	w9, w9, #16
	strh	w9, [x8, w19, sxtw #1]
	b	.LBB17_17
.LBB17_19:
	adrp	x0, .L.str.1
	add	x0, x0, :lo12:.L.str.1
	adrp	x2, .L.str.4
	add	x2, x2, :lo12:.L.str.4
	mov	w1, #3055                       // =0xbef
	bl	ggml_abort
.Lfunc_end17:
	.size	ggml_set_f32_1d, .Lfunc_end17-ggml_set_f32_1d
	.cfi_endproc
                                        // -- End function
	.globl	ggml_set_f32_nd                 // -- Begin function ggml_set_f32_nd
	.p2align	4
	.type	ggml_set_f32_nd,@function
ggml_set_f32_nd:                        // @ggml_set_f32_nd
	.cfi_startproc
// %bb.0:
	ldr	x8, [x0, #248]
                                        // kill: def $w1 killed $w1 def $x1
	sxtw	x9, w1
                                        // kill: def $w2 killed $w2 def $x2
                                        // kill: def $w3 killed $w3 def $x3
                                        // kill: def $w4 killed $w4 def $x4
	ldp	x10, x11, [x0, #48]
	nop
	madd	x8, x10, x9, x8
	sxtw	x9, w2
	madd	x8, x11, x9, x8
	sxtw	x9, w3
	ldp	x10, x11, [x0, #64]
	nop
	madd	x8, x10, x9, x8
	sxtw	x9, w4
	ldr	w10, [x0]
	mul	x9, x11, x9
	cmp	w10, #24
	b.gt	.LBB18_5
// %bb.1:
	cbz	w10, .LBB18_12
// %bb.2:
	cmp	w10, #1
	b.eq	.LBB18_10
// %bb.3:
	cmp	w10, #24
	b.ne	.LBB18_15
// %bb.4:
	fcvtzs	w10, s0
	strb	w10, [x8, x9]
	ret
.LBB18_5:
	cmp	w10, #25
	b.eq	.LBB18_13
// %bb.6:
	cmp	w10, #26
	b.eq	.LBB18_11
// %bb.7:
	cmp	w10, #30
	b.ne	.LBB18_15
// %bb.8:
	fmov	w10, s0
	mov	w12, #1                         // =0x1
	movk	w12, #32640, lsl #16
	and	w11, w10, #0x7fffffff
	cmp	w11, w12
	b.lo	.LBB18_14
// %bb.9:
	lsr	w10, w10, #16
	orr	w10, w10, #0x40
	strh	w10, [x8, x9]
	ret
.LBB18_10:
	mov	w10, #2004877312                // =0x77800000
	fabs	s1, s0
	mov	w13, #125829120                 // =0x7800000
	fmov	s2, w10
	mov	w10, #142606336                 // =0x8800000
	fmul	s1, s1, s2
	fmov	s2, w10
	fmov	w10, s0
	and	w12, w10, #0x7f800000
	fmul	s1, s1, s2
	lsl	w11, w10, #1
	add	w12, w12, w13
	ubfx	w13, w10, #23, #8
	lsr	w10, w10, #31
	cmp	w13, #113
	mov	w13, #1073741824                // =0x40000000
	csel	w12, w13, w12, lo
	fmov	s0, w12
	fadd	s0, s1, s0
	fmov	w12, s0
	lsr	w13, w12, #13
	and	w12, w12, #0xfff
	and	w13, w13, #0x7c00
	add	w12, w13, w12
	mov	w13, #-16777216                 // =0xff000000
	cmp	w11, w13
	mov	w11, #32256                     // =0x7e00
	csel	w11, w11, w12, hi
	orr	w10, w11, w10, lsl #15
	strh	w10, [x8, x9]
	ret
.LBB18_11:
	fcvtzs	w10, s0
	str	w10, [x8, x9]
	ret
.LBB18_12:
	str	s0, [x8, x9]
	ret
.LBB18_13:
	fcvtzs	w10, s0
	strh	w10, [x8, x9]
	ret
.LBB18_14:
	ubfx	w11, w10, #16, #1
	add	w10, w10, w11
	mov	w11, #32767                     // =0x7fff
	add	w10, w10, w11
	lsr	w10, w10, #16
	strh	w10, [x8, x9]
	ret
.LBB18_15:
	stp	x29, x30, [sp, #-16]!           // 16-byte Folded Spill
	.cfi_def_cfa_offset 16
	mov	x29, sp
	.cfi_def_cfa w29, 16
	.cfi_offset w30, -8
	.cfi_offset w29, -16
	adrp	x0, .L.str.1
	add	x0, x0, :lo12:.L.str.1
	adrp	x2, .L.str.4
	add	x2, x2, :lo12:.L.str.4
	mov	w1, #3109                       // =0xc25
	bl	ggml_abort
.Lfunc_end18:
	.size	ggml_set_f32_nd, .Lfunc_end18-ggml_set_f32_nd
	.cfi_endproc
                                        // -- End function
	.globl	ggml_threadpool_free            // -- Begin function ggml_threadpool_free
	.p2align	4
	.type	ggml_threadpool_free,@function
ggml_threadpool_free:                   // @ggml_threadpool_free
	.cfi_startproc
// %bb.0:
	cbz	x0, .LBB19_2
// %bb.1:
	stp	x29, x30, [sp, #-32]!           // 16-byte Folded Spill
	.cfi_def_cfa_offset 32
	str	x19, [sp, #16]                  // 8-byte Folded Spill
	mov	x29, sp
	.cfi_def_cfa w29, 32
	.cfi_offset w19, -16
	.cfi_offset w30, -24
	.cfi_offset w29, -32
	ldrsw	x8, [x0, #280]
	mov	x19, x0
	lsl	x1, x8, #4
	ldr	x8, [x0, #272]
	mov	x0, x8
	bl	ggml_aligned_free
	mov	x0, x19
	mov	w1, #320                        // =0x140
	.cfi_def_cfa wsp, 32
	ldr	x19, [sp, #16]                  // 8-byte Folded Reload
	ldp	x29, x30, [sp], #32             // 16-byte Folded Reload
	.cfi_def_cfa_offset 0
	.cfi_restore w19
	.cfi_restore w30
	.cfi_restore w29
	b	ggml_aligned_free
.LBB19_2:
	ret
.Lfunc_end19:
	.size	ggml_threadpool_free, .Lfunc_end19-ggml_threadpool_free
	.cfi_endproc
                                        // -- End function
	.globl	ggml_threadpool_pause           // -- Begin function ggml_threadpool_pause
	.p2align	4
	.type	ggml_threadpool_pause,@function
ggml_threadpool_pause:                  // @ggml_threadpool_pause
	.cfi_startproc
// %bb.0:
	ret
.Lfunc_end20:
	.size	ggml_threadpool_pause, .Lfunc_end20-ggml_threadpool_pause
	.cfi_endproc
                                        // -- End function
	.globl	ggml_threadpool_resume          // -- Begin function ggml_threadpool_resume
	.p2align	4
	.type	ggml_threadpool_resume,@function
ggml_threadpool_resume:                 // @ggml_threadpool_resume
	.cfi_startproc
// %bb.0:
	ret
.Lfunc_end21:
	.size	ggml_threadpool_resume, .Lfunc_end21-ggml_threadpool_resume
	.cfi_endproc
                                        // -- End function
	.section	.rodata.cst16,"aM",@progbits,16
	.p2align	4, 0x0                          // -- Begin function ggml_graph_plan
.LCPI22_0:
	.xword	0x0000000000000000              // fp128 0
	.xword	0x0000000000000000
	.text
	.globl	ggml_graph_plan
	.p2align	4
	.type	ggml_graph_plan,@function
ggml_graph_plan:                        // @ggml_graph_plan
	.cfi_startproc
// %bb.0:
	sub	sp, sp, #128
	.cfi_def_cfa_offset 128
	stp	x29, x30, [sp, #32]             // 16-byte Folded Spill
	stp	x28, x27, [sp, #48]             // 16-byte Folded Spill
	stp	x26, x25, [sp, #64]             // 16-byte Folded Spill
	stp	x24, x23, [sp, #80]             // 16-byte Folded Spill
	stp	x22, x21, [sp, #96]             // 16-byte Folded Spill
	stp	x20, x19, [sp, #112]            // 16-byte Folded Spill
	add	x29, sp, #32
	.cfi_def_cfa w29, 96
	.cfi_offset w19, -8
	.cfi_offset w20, -16
	.cfi_offset w21, -24
	.cfi_offset w22, -32
	.cfi_offset w23, -40
	.cfi_offset w24, -48
	.cfi_offset w25, -56
	.cfi_offset w26, -64
	.cfi_offset w27, -72
	.cfi_offset w28, -80
	.cfi_offset w30, -88
	.cfi_offset w29, -96
	.cfi_remember_state
	mov	x24, x2
	mov	w20, w1
	mov	x22, x0
	mov	x19, x8
	cmp	w1, #0
	b.gt	.LBB22_4
// %bb.1:
	cbz	x24, .LBB22_3
// %bb.2:
	ldr	w20, [x24, #280]
	b	.LBB22_4
.LBB22_3:
	mov	w20, #4                         // =0x4
.LBB22_4:
	adrp	x8, .LCPI22_0
	ldr	q0, [x8, :lo12:.LCPI22_0]
	ldr	w8, [x22, #4]
	stp	q0, q0, [x19, #16]
	cmp	w8, #1
	b.lt	.LBB22_62
// %bb.5:                               // %.lr.ph
	mov	x27, xzr
	mov	x25, xzr
	sxtw	x8, w20
	adrp	x28, .LJTI22_1
	add	x28, x28, :lo12:.LJTI22_1
	str	x8, [sp, #8]                    // 8-byte Folded Spill
	mov	w26, #1                         // =0x1
	b	.LBB22_11
.LBB22_6:                               //   in Loop: Header=BB22_11 Depth=1
	mov	w0, wzr
	bl	ggml_type_size
	ldr	x8, [x23, #16]
.LBB22_7:                               // %.thread
                                        //   in Loop: Header=BB22_11 Depth=1
                                        // kill: def $w21 killed $w21 killed $x21 def $x21
.LBB22_8:                               // %.thread
                                        //   in Loop: Header=BB22_11 Depth=1
	sxtw	x9, w21
	mul	x9, x0, x9
	mul	x8, x9, x8
.LBB22_9:                               // %.thread
                                        //   in Loop: Header=BB22_11 Depth=1
	stur	x8, [x29, #-8]
.LBB22_10:                              // %.thread
                                        //   in Loop: Header=BB22_11 Depth=1
	ldur	x8, [x29, #-8]
	add	x27, x27, #1
	cmp	x25, x8
	csel	x25, x25, x8, hi
	ldrsw	x8, [x22, #4]
	cmp	x27, x8
	b.ge	.LBB22_61
.LBB22_11:                              // =>This Inner Loop Header: Depth=1
	ldr	x8, [x22, #16]
	ldr	x23, [x8, x27, lsl #3]
	mov	x0, x23
	bl	ggml_is_empty
	tbnz	w0, #0, .LBB22_14
// %bb.12:                              //   in Loop: Header=BB22_11 Depth=1
	ldr	w8, [x23, #80]
	cmp	w8, #85
	b.hi	.LBB22_64
// %bb.13:                              //   in Loop: Header=BB22_11 Depth=1
	adrp	x11, .LJTI22_0
	add	x11, x11, :lo12:.LJTI22_0
	adr	x9, .LBB22_14
	ldrh	w10, [x11, x8, lsl #1]
	add	x9, x9, x10, lsl #2
	mov	w21, w20
	br	x9
.LBB22_14:                              //   in Loop: Header=BB22_11 Depth=1
	mov	w21, #1                         // =0x1
.LBB22_15:                              // %ggml_get_n_tasks.exit
                                        //   in Loop: Header=BB22_11 Depth=1
	cmp	w26, w21
	sub	x2, x29, #8
	stur	xzr, [x29, #-8]
	mov	w0, w20
	mov	x1, x23
	csel	w26, w26, w21, gt
	bl	ggml_cpu_extra_work_size
	tbnz	w0, #0, .LBB22_10
// %bb.16:                              //   in Loop: Header=BB22_11 Depth=1
	ldr	w8, [x23, #80]
	sub	w8, w8, #1
	cmp	w8, #84
	b.hi	.LBB22_10
// %bb.17:                              //   in Loop: Header=BB22_11 Depth=1
	adr	x9, .LBB22_6
	ldrh	w10, [x28, x8, lsl #1]
	add	x9, x9, x10, lsl #2
	br	x9
.LBB22_18:                              //   in Loop: Header=BB22_11 Depth=1
	ldr	x8, [x23, #152]
	ldr	w0, [x8]
	bl	ggml_is_quantized
	tbz	w0, #0, .LBB22_10
// %bb.19:                              //   in Loop: Header=BB22_11 Depth=1
	mov	w0, wzr
	bl	ggml_type_size
	ldr	x8, [x23, #152]
	b	.LBB22_30
.LBB22_20:                              //   in Loop: Header=BB22_11 Depth=1
	ldr	w0, [x23]
	bl	ggml_is_quantized
	tbz	w0, #0, .LBB22_46
.LBB22_21:                              //   in Loop: Header=BB22_11 Depth=1
	mov	w0, wzr
	bl	ggml_type_size
	ldr	x8, [x23, #16]
	b	.LBB22_8
.LBB22_22:                              //   in Loop: Header=BB22_11 Depth=1
	ldr	w0, [x23]
	bl	ggml_type_size
	ldr	x9, [x23, #152]
                                        // kill: def $w21 killed $w21 killed $x21 def $x21
	sxtw	x8, w21
	mul	x8, x0, x8
	ldr	x9, [x9, #16]
	nop
	madd	x8, x8, x9, x8
	b	.LBB22_9
.LBB22_23:                              //   in Loop: Header=BB22_11 Depth=1
	ldp	x8, x0, [x23, #152]
	adrp	x9, type_traits_cpu
	add	x9, x9, :lo12:type_traits_cpu
	ldr	w8, [x8]
	add	x8, x9, x8, lsl #5
	ldr	w23, [x8, #16]
	ldr	w8, [x0]
	cmp	w8, w23
	b.eq	.LBB22_10
// %bb.24:                              //   in Loop: Header=BB22_11 Depth=1
	bl	ggml_nelements
	mov	x1, x0
	mov	w0, w23
	bl	ggml_row_size
	stur	x0, [x29, #-8]
	b	.LBB22_10
.LBB22_25:                              //   in Loop: Header=BB22_11 Depth=1
	ldp	x9, x0, [x23, #152]
	adrp	x11, type_traits_cpu
	add	x11, x11, :lo12:type_traits_cpu
	str	x19, [sp, #16]                  // 8-byte Folded Spill
	mov	x19, x28
	mov	x28, x24
	ldr	x21, [x23, #168]
	mov	x8, xzr
	stur	xzr, [x29, #-8]
	ldr	w10, [x9]
	ldr	x24, [x9, #32]
	ldr	w9, [x0]
	add	x10, x11, x10, lsl #5
	ldr	w23, [x10, #16]
	cmp	w9, w23
	b.eq	.LBB22_27
// %bb.26:                              //   in Loop: Header=BB22_11 Depth=1
	bl	ggml_nelements
	mov	x1, x0
	mov	w0, w23
	bl	ggml_row_size
	ldur	x8, [x29, #-8]
	add	x8, x0, x8
	add	x8, x8, #8
.LBB22_27:                              //   in Loop: Header=BB22_11 Depth=1
	sbfiz	x9, x24, #3, #32
	lsl	w10, w24, #6
	mov	x24, x28
	add	x8, x9, x8
	add	x8, x8, w10, sxtw
	mov	x28, x19
	ldp	x10, x11, [x21, #16]
	ldr	x19, [sp, #16]                  // 8-byte Folded Reload
	mul	x9, x9, x10
	madd	x8, x9, x11, x8
	add	x8, x8, #80
	b	.LBB22_9
.LBB22_28:                              //   in Loop: Header=BB22_11 Depth=1
	ldr	x8, [x23, #152]
	ldr	w0, [x8]
	bl	ggml_is_quantized
	tbz	w0, #0, .LBB22_10
// %bb.29:                              //   in Loop: Header=BB22_11 Depth=1
	mov	w0, wzr
	bl	ggml_type_size
	ldr	x8, [x23, #160]
.LBB22_30:                              // %.thread
                                        //   in Loop: Header=BB22_11 Depth=1
	ldr	x8, [x8, #16]
	b	.LBB22_7
.LBB22_31:                              //   in Loop: Header=BB22_11 Depth=1
	ldp	x8, x9, [x23, #152]
	ldp	x10, x11, [x8, #16]
	mul	x10, x11, x10
	ldp	x12, x8, [x8, #32]
	mul	x10, x10, x12
	ldp	x13, x14, [x9, #16]
	mul	x11, x14, x13
	ldr	x9, [x9, #32]
	mul	x8, x10, x8
	ldur	x10, [x29, #-8]
	nop
	madd	x8, x11, x9, x8
	add	x8, x10, x8, lsl #1
	b	.LBB22_9
.LBB22_32:                              //   in Loop: Header=BB22_11 Depth=1
	ldr	w0, [x23]
	bl	ggml_type_size
                                        // kill: def $w21 killed $w21 killed $x21 def $x21
	sxtw	x8, w21
	mul	x8, x0, x8
	b	.LBB22_9
.LBB22_33:                              //   in Loop: Header=BB22_11 Depth=1
	ldr	x14, [x23, #152]
	ldr	x8, [x14, #40]
	cmp	x8, #1
	b.ne	.LBB22_70
// %bb.34:                              //   in Loop: Header=BB22_11 Depth=1
	ldr	x11, [x23, #160]
	ldr	x8, [x11, #32]
	cmp	x8, #1
	b.ne	.LBB22_71
// %bb.35:                              //   in Loop: Header=BB22_11 Depth=1
	ldr	x8, [x11, #40]
	cmp	x8, #1
	b.ne	.LBB22_72
// %bb.36:                              //   in Loop: Header=BB22_11 Depth=1
	ldp	x8, x9, [x14, #16]
	ldr	x12, [x14, #32]
	ldp	x10, x13, [x11, #16]
	ldr	w14, [x14]
	cbz	w14, .LBB22_53
// %bb.37:                              //   in Loop: Header=BB22_11 Depth=1
	cmp	w14, #30
	b.eq	.LBB22_39
// %bb.38:                              //   in Loop: Header=BB22_11 Depth=1
	cmp	w14, #1
	b.ne	.LBB22_68
.LBB22_39:                              //   in Loop: Header=BB22_11 Depth=1
	ldr	w11, [x11]
	cbnz	w11, .LBB22_68
// %bb.40:                              //   in Loop: Header=BB22_11 Depth=1
	mov	w11, #1                         // =0x1
	b	.LBB22_55
.LBB22_41:                              //   in Loop: Header=BB22_11 Depth=1
	ldp	x8, x9, [x23, #160]
                                        // kill: def $w21 killed $w21 killed $x21 def $x21
	ldr	x9, [x9, #16]
	ldr	x8, [x8, #16]
	lsl	x9, x9, #3
	add	x8, x9, x8, lsl #2
	sxtw	x9, w21
	mul	x8, x8, x9
	b	.LBB22_9
.LBB22_42:                              //   in Loop: Header=BB22_11 Depth=1
	ldp	x8, x9, [x23, #152]
	ldr	w10, [x9, #24]
	ldr	x8, [x8, #16]
	ldr	w9, [x9]
	add	w10, w10, #3
	sxtw	x10, w10
	and	x10, x10, #0xfffffffffffffffc
	cmp	x8, x10
	csel	x8, x8, x10, gt
	cmp	w9, #30
	b.eq	.LBB22_45
// %bb.43:                              //   in Loop: Header=BB22_11 Depth=1
	cmp	w9, #1
	b.eq	.LBB22_45
// %bb.44:                              //   in Loop: Header=BB22_11 Depth=1
	cbnz	w9, .LBB22_10
.LBB22_45:                              //   in Loop: Header=BB22_11 Depth=1
                                        // kill: def $w21 killed $w21 killed $x21 def $x21
	sxtw	x9, w21
	mul	x8, x9, x8
	lsl	x8, x8, #4
	b	.LBB22_9
.LBB22_46:                              //   in Loop: Header=BB22_11 Depth=1
	ldr	x8, [x23, #152]
	ldr	w8, [x8]
	cmp	w8, #30
	b.eq	.LBB22_51
// %bb.47:                              //   in Loop: Header=BB22_11 Depth=1
	cmp	w8, #1
	b.ne	.LBB22_10
// %bb.48:                              //   in Loop: Header=BB22_11 Depth=1
	ldr	x8, [x23, #160]
	cbz	x8, .LBB22_10
// %bb.49:                              //   in Loop: Header=BB22_11 Depth=1
	ldr	w8, [x8]
	cmp	w8, #30
	b.ne	.LBB22_10
	b	.LBB22_21
.LBB22_50:                              //   in Loop: Header=BB22_11 Depth=1
	ldr	w8, [x23, #92]
	cmp	w8, w20
	csel	w9, w8, w20, lt
	cmn	w8, #1
	csel	w21, w20, w9, eq
	b	.LBB22_15
.LBB22_51:                              //   in Loop: Header=BB22_11 Depth=1
	ldr	x8, [x23, #160]
	cbz	x8, .LBB22_10
// %bb.52:                              //   in Loop: Header=BB22_11 Depth=1
	ldr	w8, [x8]
	cmp	w8, #1
	b.ne	.LBB22_10
	b	.LBB22_21
.LBB22_53:                              //   in Loop: Header=BB22_11 Depth=1
	ldr	w11, [x11]
	cbnz	w11, .LBB22_68
// %bb.54:                              //   in Loop: Header=BB22_11 Depth=1
	mov	w11, #2                         // =0x2
.LBB22_55:                              //   in Loop: Header=BB22_11 Depth=1
	mul	x9, x12, x9
	ldur	x14, [x29, #-8]
	mul	x8, x9, x8
	madd	x8, x13, x10, x8
	lsl	x8, x8, x11
	add	x8, x14, x8
	b	.LBB22_9
.LBB22_56:                              //   in Loop: Header=BB22_11 Depth=1
	ldr	x0, [x23, #152]
	bl	ggml_nrows
	ldr	x8, [sp, #8]                    // 8-byte Folded Reload
	mov	w21, w20
	cmp	x0, x8
	b.gt	.LBB22_15
// %bb.57:                              //   in Loop: Header=BB22_11 Depth=1
	ldr	x0, [x23, #152]
	bl	ggml_nrows
	mov	w21, w0
	b	.LBB22_15
.LBB22_58:                              //   in Loop: Header=BB22_11 Depth=1
	mov	x0, x23
	bl	ggml_get_unary_op
	cmp	w0, #13
	b.hi	.LBB22_74
// %bb.59:                              //   in Loop: Header=BB22_11 Depth=1
	mov	w8, #1                          // =0x1
	mov	w9, #14591                      // =0x38ff
	lsl	w8, w8, w0
	tst	w8, w9
	b.ne	.LBB22_14
// %bb.60:                              //   in Loop: Header=BB22_11 Depth=1
	mov	w21, w20
	b	.LBB22_15
.LBB22_61:                              // %._crit_edge
	lsl	w8, w20, #6
	cmp	x25, #0
	add	x8, x25, w8, sxtw
	csel	x8, xzr, x8, eq
	b	.LBB22_63
.LBB22_62:
	mov	x8, xzr
	mov	w26, #1                         // =0x1
.LBB22_63:                              // %._crit_edge.thread
	cmp	w26, w20
	str	x24, [x19, #24]
	csel	w9, w26, w20, lt
	str	w9, [x19, #16]
	stp	x8, xzr, [x19]
	.cfi_def_cfa wsp, 128
	ldp	x20, x19, [sp, #112]            // 16-byte Folded Reload
	ldp	x22, x21, [sp, #96]             // 16-byte Folded Reload
	ldp	x24, x23, [sp, #80]             // 16-byte Folded Reload
	ldp	x26, x25, [sp, #64]             // 16-byte Folded Reload
	ldp	x28, x27, [sp, #48]             // 16-byte Folded Reload
	ldp	x29, x30, [sp, #32]             // 16-byte Folded Reload
	add	sp, sp, #128
	.cfi_def_cfa_offset 0
	.cfi_restore w19
	.cfi_restore w20
	.cfi_restore w21
	.cfi_restore w22
	.cfi_restore w23
	.cfi_restore w24
	.cfi_restore w25
	.cfi_restore w26
	.cfi_restore w27
	.cfi_restore w28
	.cfi_restore w30
	.cfi_restore w29
	ret
.LBB22_64:
	.cfi_restore_state
	adrp	x19, :got:stderr
	adrp	x1, .L.str.14
	add	x1, x1, :lo12:.L.str.14
	ldr	x19, [x19, :got_lo12:stderr]
	adrp	x2, .L__func__.ggml_get_n_tasks
	add	x2, x2, :lo12:.L__func__.ggml_get_n_tasks
	ldr	x0, [x19]
	bl	fprintf
	ldr	w2, [x23, #80]
	ldr	x19, [x19]
	cmp	w2, #84
	b.hi	.LBB22_66
// %bb.65:
	mov	w0, w2
	bl	ggml_op_name
	mov	x2, x0
	adrp	x1, .L.str.15
	add	x1, x1, :lo12:.L.str.15
	mov	x0, x19
	bl	fprintf
	b	.LBB22_67
.LBB22_66:
	adrp	x1, .L.str.16
	add	x1, x1, :lo12:.L.str.16
	mov	x0, x19
	bl	fprintf
.LBB22_67:
	adrp	x0, .L.str.1
	add	x0, x0, :lo12:.L.str.1
	adrp	x2, .L.str.4
	add	x2, x2, :lo12:.L.str.4
	mov	w1, #13029                      // =0x32e5
	bl	ggml_abort
.LBB22_68:                              // %.thread152
	adrp	x0, .L.str.1
	add	x0, x0, :lo12:.L.str.1
	adrp	x2, .L.str.4
	add	x2, x2, :lo12:.L.str.4
	mov	w1, #13424                      // =0x3470
	bl	ggml_abort
.LBB22_69:
	adrp	x0, .L.str.1
	add	x0, x0, :lo12:.L.str.1
	adrp	x2, .L.str.4
	add	x2, x2, :lo12:.L.str.4
	mov	w1, #13471                      // =0x349f
	bl	ggml_abort
.LBB22_70:
	adrp	x0, .L.str.1
	add	x0, x0, :lo12:.L.str.1
	adrp	x2, .L.str.2
	add	x2, x2, :lo12:.L.str.2
	adrp	x3, .L.str.11
	add	x3, x3, :lo12:.L.str.11
	mov	w1, #13404                      // =0x345c
	bl	ggml_abort
.LBB22_71:
	adrp	x0, .L.str.1
	add	x0, x0, :lo12:.L.str.1
	adrp	x2, .L.str.2
	add	x2, x2, :lo12:.L.str.2
	adrp	x3, .L.str.12
	add	x3, x3, :lo12:.L.str.12
	mov	w1, #13405                      // =0x345d
	bl	ggml_abort
.LBB22_72:
	adrp	x0, .L.str.1
	add	x0, x0, :lo12:.L.str.1
	adrp	x2, .L.str.2
	add	x2, x2, :lo12:.L.str.2
	adrp	x3, .L.str.13
	add	x3, x3, :lo12:.L.str.13
	mov	w1, #13406                      // =0x345e
	bl	ggml_abort
.LBB22_73:
	adrp	x0, .L.str.1
	add	x0, x0, :lo12:.L.str.1
	adrp	x2, .L.str.4
	add	x2, x2, :lo12:.L.str.4
	mov	w1, #13019                      // =0x32db
	bl	ggml_abort
.LBB22_74:
	adrp	x0, .L.str.1
	add	x0, x0, :lo12:.L.str.1
	adrp	x2, .L.str.4
	add	x2, x2, :lo12:.L.str.4
	mov	w1, #12884                      // =0x3254
	bl	ggml_abort
.Lfunc_end22:
	.size	ggml_graph_plan, .Lfunc_end22-ggml_graph_plan
	.cfi_endproc
	.section	.rodata,"a",@progbits
	.p2align	1, 0x0
.LJTI22_0:
	.hword	(.LBB22_14-.LBB22_14)>>2
	.hword	(.LBB22_15-.LBB22_14)>>2
	.hword	(.LBB22_15-.LBB22_14)>>2
	.hword	(.LBB22_15-.LBB22_14)>>2
	.hword	(.LBB22_15-.LBB22_14)>>2
	.hword	(.LBB22_14-.LBB22_14)>>2
	.hword	(.LBB22_15-.LBB22_14)>>2
	.hword	(.LBB22_15-.LBB22_14)>>2
	.hword	(.LBB22_14-.LBB22_14)>>2
	.hword	(.LBB22_14-.LBB22_14)>>2
	.hword	(.LBB22_14-.LBB22_14)>>2
	.hword	(.LBB22_14-.LBB22_14)>>2
	.hword	(.LBB22_14-.LBB22_14)>>2
	.hword	(.LBB22_14-.LBB22_14)>>2
	.hword	(.LBB22_14-.LBB22_14)>>2
	.hword	(.LBB22_14-.LBB22_14)>>2
	.hword	(.LBB22_14-.LBB22_14)>>2
	.hword	(.LBB22_15-.LBB22_14)>>2
	.hword	(.LBB22_14-.LBB22_14)>>2
	.hword	(.LBB22_14-.LBB22_14)>>2
	.hword	(.LBB22_15-.LBB22_14)>>2
	.hword	(.LBB22_15-.LBB22_14)>>2
	.hword	(.LBB22_15-.LBB22_14)>>2
	.hword	(.LBB22_15-.LBB22_14)>>2
	.hword	(.LBB22_15-.LBB22_14)>>2
	.hword	(.LBB22_15-.LBB22_14)>>2
	.hword	(.LBB22_15-.LBB22_14)>>2
	.hword	(.LBB22_15-.LBB22_14)>>2
	.hword	(.LBB22_15-.LBB22_14)>>2
	.hword	(.LBB22_15-.LBB22_14)>>2
	.hword	(.LBB22_14-.LBB22_14)>>2
	.hword	(.LBB22_14-.LBB22_14)>>2
	.hword	(.LBB22_15-.LBB22_14)>>2
	.hword	(.LBB22_15-.LBB22_14)>>2
	.hword	(.LBB22_14-.LBB22_14)>>2
	.hword	(.LBB22_14-.LBB22_14)>>2
	.hword	(.LBB22_14-.LBB22_14)>>2
	.hword	(.LBB22_14-.LBB22_14)>>2
	.hword	(.LBB22_14-.LBB22_14)>>2
	.hword	(.LBB22_14-.LBB22_14)>>2
	.hword	(.LBB22_14-.LBB22_14)>>2
	.hword	(.LBB22_15-.LBB22_14)>>2
	.hword	(.LBB22_15-.LBB22_14)>>2
	.hword	(.LBB22_56-.LBB22_14)>>2
	.hword	(.LBB22_15-.LBB22_14)>>2
	.hword	(.LBB22_15-.LBB22_14)>>2
	.hword	(.LBB22_15-.LBB22_14)>>2
	.hword	(.LBB22_14-.LBB22_14)>>2
	.hword	(.LBB22_15-.LBB22_14)>>2
	.hword	(.LBB22_15-.LBB22_14)>>2
	.hword	(.LBB22_15-.LBB22_14)>>2
	.hword	(.LBB22_15-.LBB22_14)>>2
	.hword	(.LBB22_14-.LBB22_14)>>2
	.hword	(.LBB22_14-.LBB22_14)>>2
	.hword	(.LBB22_14-.LBB22_14)>>2
	.hword	(.LBB22_15-.LBB22_14)>>2
	.hword	(.LBB22_15-.LBB22_14)>>2
	.hword	(.LBB22_15-.LBB22_14)>>2
	.hword	(.LBB22_15-.LBB22_14)>>2
	.hword	(.LBB22_15-.LBB22_14)>>2
	.hword	(.LBB22_15-.LBB22_14)>>2
	.hword	(.LBB22_14-.LBB22_14)>>2
	.hword	(.LBB22_15-.LBB22_14)>>2
	.hword	(.LBB22_15-.LBB22_14)>>2
	.hword	(.LBB22_15-.LBB22_14)>>2
	.hword	(.LBB22_15-.LBB22_14)>>2
	.hword	(.LBB22_14-.LBB22_14)>>2
	.hword	(.LBB22_14-.LBB22_14)>>2
	.hword	(.LBB22_14-.LBB22_14)>>2
	.hword	(.LBB22_15-.LBB22_14)>>2
	.hword	(.LBB22_15-.LBB22_14)>>2
	.hword	(.LBB22_15-.LBB22_14)>>2
	.hword	(.LBB22_15-.LBB22_14)>>2
	.hword	(.LBB22_58-.LBB22_14)>>2
	.hword	(.LBB22_14-.LBB22_14)>>2
	.hword	(.LBB22_14-.LBB22_14)>>2
	.hword	(.LBB22_14-.LBB22_14)>>2
	.hword	(.LBB22_14-.LBB22_14)>>2
	.hword	(.LBB22_14-.LBB22_14)>>2
	.hword	(.LBB22_50-.LBB22_14)>>2
	.hword	(.LBB22_50-.LBB22_14)>>2
	.hword	(.LBB22_50-.LBB22_14)>>2
	.hword	(.LBB22_15-.LBB22_14)>>2
	.hword	(.LBB22_15-.LBB22_14)>>2
	.hword	(.LBB22_15-.LBB22_14)>>2
	.hword	(.LBB22_73-.LBB22_14)>>2
	.p2align	1, 0x0
.LJTI22_1:
	.hword	(.LBB22_20-.LBB22_6)>>2
	.hword	(.LBB22_18-.LBB22_6)>>2
	.hword	(.LBB22_18-.LBB22_6)>>2
	.hword	(.LBB22_28-.LBB22_6)>>2
	.hword	(.LBB22_10-.LBB22_6)>>2
	.hword	(.LBB22_10-.LBB22_6)>>2
	.hword	(.LBB22_10-.LBB22_6)>>2
	.hword	(.LBB22_10-.LBB22_6)>>2
	.hword	(.LBB22_10-.LBB22_6)>>2
	.hword	(.LBB22_10-.LBB22_6)>>2
	.hword	(.LBB22_10-.LBB22_6)>>2
	.hword	(.LBB22_10-.LBB22_6)>>2
	.hword	(.LBB22_10-.LBB22_6)>>2
	.hword	(.LBB22_10-.LBB22_6)>>2
	.hword	(.LBB22_10-.LBB22_6)>>2
	.hword	(.LBB22_10-.LBB22_6)>>2
	.hword	(.LBB22_32-.LBB22_6)>>2
	.hword	(.LBB22_10-.LBB22_6)>>2
	.hword	(.LBB22_10-.LBB22_6)>>2
	.hword	(.LBB22_10-.LBB22_6)>>2
	.hword	(.LBB22_10-.LBB22_6)>>2
	.hword	(.LBB22_10-.LBB22_6)>>2
	.hword	(.LBB22_10-.LBB22_6)>>2
	.hword	(.LBB22_10-.LBB22_6)>>2
	.hword	(.LBB22_10-.LBB22_6)>>2
	.hword	(.LBB22_10-.LBB22_6)>>2
	.hword	(.LBB22_23-.LBB22_6)>>2
	.hword	(.LBB22_25-.LBB22_6)>>2
	.hword	(.LBB22_18-.LBB22_6)>>2
	.hword	(.LBB22_10-.LBB22_6)>>2
	.hword	(.LBB22_10-.LBB22_6)>>2
	.hword	(.LBB22_20-.LBB22_6)>>2
	.hword	(.LBB22_10-.LBB22_6)>>2
	.hword	(.LBB22_10-.LBB22_6)>>2
	.hword	(.LBB22_10-.LBB22_6)>>2
	.hword	(.LBB22_10-.LBB22_6)>>2
	.hword	(.LBB22_10-.LBB22_6)>>2
	.hword	(.LBB22_10-.LBB22_6)>>2
	.hword	(.LBB22_10-.LBB22_6)>>2
	.hword	(.LBB22_10-.LBB22_6)>>2
	.hword	(.LBB22_10-.LBB22_6)>>2
	.hword	(.LBB22_10-.LBB22_6)>>2
	.hword	(.LBB22_6-.LBB22_6)>>2
	.hword	(.LBB22_10-.LBB22_6)>>2
	.hword	(.LBB22_6-.LBB22_6)>>2
	.hword	(.LBB22_6-.LBB22_6)>>2
	.hword	(.LBB22_10-.LBB22_6)>>2
	.hword	(.LBB22_33-.LBB22_6)>>2
	.hword	(.LBB22_10-.LBB22_6)>>2
	.hword	(.LBB22_10-.LBB22_6)>>2
	.hword	(.LBB22_31-.LBB22_6)>>2
	.hword	(.LBB22_10-.LBB22_6)>>2
	.hword	(.LBB22_10-.LBB22_6)>>2
	.hword	(.LBB22_10-.LBB22_6)>>2
	.hword	(.LBB22_10-.LBB22_6)>>2
	.hword	(.LBB22_10-.LBB22_6)>>2
	.hword	(.LBB22_10-.LBB22_6)>>2
	.hword	(.LBB22_10-.LBB22_6)>>2
	.hword	(.LBB22_10-.LBB22_6)>>2
	.hword	(.LBB22_10-.LBB22_6)>>2
	.hword	(.LBB22_10-.LBB22_6)>>2
	.hword	(.LBB22_41-.LBB22_6)>>2
	.hword	(.LBB22_42-.LBB22_6)>>2
	.hword	(.LBB22_10-.LBB22_6)>>2
	.hword	(.LBB22_10-.LBB22_6)>>2
	.hword	(.LBB22_10-.LBB22_6)>>2
	.hword	(.LBB22_10-.LBB22_6)>>2
	.hword	(.LBB22_10-.LBB22_6)>>2
	.hword	(.LBB22_10-.LBB22_6)>>2
	.hword	(.LBB22_10-.LBB22_6)>>2
	.hword	(.LBB22_10-.LBB22_6)>>2
	.hword	(.LBB22_10-.LBB22_6)>>2
	.hword	(.LBB22_10-.LBB22_6)>>2
	.hword	(.LBB22_10-.LBB22_6)>>2
	.hword	(.LBB22_10-.LBB22_6)>>2
	.hword	(.LBB22_10-.LBB22_6)>>2
	.hword	(.LBB22_10-.LBB22_6)>>2
	.hword	(.LBB22_10-.LBB22_6)>>2
	.hword	(.LBB22_10-.LBB22_6)>>2
	.hword	(.LBB22_10-.LBB22_6)>>2
	.hword	(.LBB22_10-.LBB22_6)>>2
	.hword	(.LBB22_22-.LBB22_6)>>2
	.hword	(.LBB22_10-.LBB22_6)>>2
	.hword	(.LBB22_10-.LBB22_6)>>2
	.hword	(.LBB22_69-.LBB22_6)>>2
                                        // -- End function
	.text
	.globl	ggml_threadpool_new             // -- Begin function ggml_threadpool_new
	.p2align	4
	.type	ggml_threadpool_new,@function
ggml_threadpool_new:                    // @ggml_threadpool_new
	.cfi_startproc
// %bb.0:
	stp	x29, x30, [sp, #-48]!           // 16-byte Folded Spill
	.cfi_def_cfa_offset 48
	stp	x22, x21, [sp, #16]             // 16-byte Folded Spill
	stp	x20, x19, [sp, #32]             // 16-byte Folded Spill
	mov	x29, sp
	.cfi_def_cfa w29, 48
	.cfi_offset w19, -8
	.cfi_offset w20, -16
	.cfi_offset w21, -24
	.cfi_offset w22, -32
	.cfi_offset w30, -40
	.cfi_offset w29, -48
	mov	x21, x0
	mov	w0, #320                        // =0x140
	bl	ggml_aligned_malloc
	add	x8, x0, #104
	stp	xzr, xzr, [x0, #88]
	add	x9, x0, #128
	mov	x19, x0
	stlr	wzr, [x8]
	add	x8, x0, #192
	stlr	wzr, [x9]
	add	x9, x0, #256
	stlr	wzr, [x8]
	add	x8, x0, #260
	stlr	wzr, [x9]
	add	x9, x0, #261
	stlrb	wzr, [x8]
	ldrb	w8, [x21, #525]
	stlrb	w8, [x9]
	mov	w8, #-1                         // =0xffffffff
	add	x9, x0, #264
	stlr	w8, [x9]
	add	x9, x0, #284
	str	xzr, [x0, #272]
	ldrsw	x8, [x21, #512]
	str	w8, [x0, #280]
	stlr	w8, [x9]
	lsl	x22, x8, #4
	str	wzr, [x0, #296]
	ldr	w9, [x21, #520]
	str	w9, [x0, #292]
	ldr	w9, [x21, #516]
	str	w9, [x0, #288]
	mov	x0, x22
	bl	ggml_aligned_malloc
	mov	w1, wzr
	mov	x2, x22
	mov	x20, x0
	bl	memset
	ldr	w8, [x21, #512]
	cmp	w8, #1
	b.lt	.LBB23_12
// %bb.1:                               // %.lr.ph.preheader.i
	cmp	w8, #1
	b.ne	.LBB23_3
// %bb.2:
	mov	x9, xzr
	b	.LBB23_6
.LBB23_3:                               // %vector.ph
	mov	x10, xzr
	and	x9, x8, #0x7ffffffe
	add	x11, x20, #16
	.p2align	5, , 16
.LBB23_4:                               // %vector.body
                                        // =>This Inner Loop Header: Depth=1
	add	w12, w10, #1
	stur	x19, [x11, #-16]
	stur	w10, [x11, #-8]
	add	x10, x10, #2
	str	x19, [x11]
	str	w12, [x11, #8]
	add	x11, x11, #32
	cmp	x9, x10
	b.ne	.LBB23_4
// %bb.5:                               // %middle.block
	cmp	x9, x8
	b.eq	.LBB23_12
.LBB23_6:                               // %.lr.ph.i.preheader
	sub	w10, w8, w9
	ands	x11, x10, #0x3
	mov	x10, x9
	b.eq	.LBB23_9
// %bb.7:                               // %.lr.ph.i.prol.preheader
	add	x10, x20, x9, lsl #4
	add	x12, x10, #8
	mov	x10, x9
	.p2align	5, , 16
.LBB23_8:                               // %.lr.ph.i.prol
                                        // =>This Inner Loop Header: Depth=1
	str	w10, [x12]
	add	x10, x10, #1
	subs	x11, x11, #1
	stur	x19, [x12, #-8]
	add	x12, x12, #16
	b.ne	.LBB23_8
.LBB23_9:                               // %.lr.ph.i.prol.loopexit
	sub	x9, x9, x8
	cmn	x9, #4
	b.hi	.LBB23_12
// %bb.10:                              // %.lr.ph.i.preheader1
	add	x9, x20, x10, lsl #4
	add	x9, x9, #32
	.p2align	5, , 16
.LBB23_11:                              // %.lr.ph.i
                                        // =>This Inner Loop Header: Depth=1
	add	w11, w10, #1
	stur	x19, [x9, #-32]
	stur	w10, [x9, #-24]
	stur	w11, [x9, #-8]
	add	w11, w10, #2
	stur	x19, [x9, #-16]
	str	w11, [x9, #8]
	add	w11, w10, #3
	add	x10, x10, #4
	str	x19, [x9]
	str	x19, [x9, #16]
	str	w11, [x9, #24]
	add	x9, x9, #64
	cmp	x10, x8
	b.ne	.LBB23_11
.LBB23_12:                              // %ggml_threadpool_new_impl.exit
	str	x20, [x19, #272]
	mov	x0, x19
	.cfi_def_cfa wsp, 48
	ldp	x20, x19, [sp, #32]             // 16-byte Folded Reload
	ldp	x22, x21, [sp, #16]             // 16-byte Folded Reload
	ldp	x29, x30, [sp], #48             // 16-byte Folded Reload
	.cfi_def_cfa_offset 0
	.cfi_restore w19
	.cfi_restore w20
	.cfi_restore w21
	.cfi_restore w22
	.cfi_restore w30
	.cfi_restore w29
	ret
.Lfunc_end23:
	.size	ggml_threadpool_new, .Lfunc_end23-ggml_threadpool_new
	.cfi_endproc
                                        // -- End function
	.globl	ggml_graph_compute              // -- Begin function ggml_graph_compute
	.p2align	4
	.type	ggml_graph_compute,@function
ggml_graph_compute:                     // @ggml_graph_compute
	.cfi_startproc
// %bb.0:
	stp	x29, x30, [sp, #-80]!           // 16-byte Folded Spill
	.cfi_def_cfa_offset 80
	str	x28, [sp, #16]                  // 8-byte Folded Spill
	stp	x24, x23, [sp, #32]             // 16-byte Folded Spill
	stp	x22, x21, [sp, #48]             // 16-byte Folded Spill
	stp	x20, x19, [sp, #64]             // 16-byte Folded Spill
	mov	x29, sp
	.cfi_def_cfa w29, 80
	.cfi_offset w19, -8
	.cfi_offset w20, -16
	.cfi_offset w21, -24
	.cfi_offset w22, -32
	.cfi_offset w23, -40
	.cfi_offset w24, -48
	.cfi_offset w28, -64
	.cfi_offset w30, -72
	.cfi_offset w29, -80
	.cfi_remember_state
	sub	sp, sp, #544
	mov	x23, x0
	adrp	x0, .L__unnamed_1
	add	x0, x0, :lo12:.L__unnamed_1
	mov	x22, x1
	bl	__kmpc_global_thread_num
	mov	w19, w0
	bl	ggml_cpu_init
	cbz	x22, .LBB24_23
// %bb.1:
	ldr	w20, [x22, #16]
	cmp	w20, #0
	b.le	.LBB24_24
// %bb.2:
	ldr	x8, [x22]
	cbz	x8, .LBB24_4
// %bb.3:
	ldr	x8, [x22, #8]
	cbz	x8, .LBB24_25
.LBB24_4:
	ldr	x24, [x22, #24]
	str	w20, [x29, #28]
	stur	x24, [x29, #-8]
	cbz	x24, .LBB24_7
// %bb.5:
	add	x8, x24, #256
	stp	x23, x22, [x24, #88]
	mov	w9, #-1                         // =0xffffffff
	mov	x21, x24
	stlr	wzr, [x8]
	add	x8, x24, #264
	stlr	w9, [x8]
	str	wzr, [x24, #296]
	cmp	w20, #1
	b.ne	.LBB24_20
.LBB24_6:
	mov	w8, #1                          // =0x1
	str	w8, [x21, #284]
	ldr	x0, [x21, #272]
	bl	ggml_graph_compute_thread
	ldr	w19, [x21, #296]
	cbnz	x24, .LBB24_22
	b	.LBB24_21
.LBB24_7:
	add	x8, sp, #8
	mov	w0, w20
	bl	ggml_threadpool_params_default
	mov	w0, #320                        // =0x140
	bl	ggml_aligned_malloc
	add	x8, x0, #104
	stp	x23, x22, [x0, #88]
	add	x9, x0, #128
	mov	x21, x0
	stlr	wzr, [x8]
	add	x8, x0, #192
	stlr	wzr, [x9]
	add	x9, x0, #256
	stlr	wzr, [x8]
	add	x8, x0, #260
	stlr	wzr, [x9]
	add	x9, x0, #261
	stlrb	wzr, [x8]
	ldrb	w8, [sp, #533]
	stlrb	w8, [x9]
	mov	w8, #-1                         // =0xffffffff
	add	x9, x0, #264
	stlr	w8, [x9]
	add	x9, x0, #284
	str	xzr, [x0, #272]
	ldrsw	x8, [sp, #520]
	str	w8, [x0, #280]
	stlr	w8, [x9]
	lsl	x23, x8, #4
	str	wzr, [x0, #296]
	ldr	w9, [sp, #528]
	str	w9, [x0, #292]
	ldr	w9, [sp, #524]
	str	w9, [x0, #288]
	mov	x0, x23
	bl	ggml_aligned_malloc
	mov	w1, wzr
	mov	x2, x23
	mov	x22, x0
	bl	memset
	ldr	w8, [sp, #520]
	cmp	w8, #1
	b.lt	.LBB24_19
// %bb.8:                               // %.lr.ph.preheader.i
	cmp	w8, #1
	b.ne	.LBB24_10
// %bb.9:
	mov	x9, xzr
	b	.LBB24_13
.LBB24_10:                              // %vector.ph
	mov	x10, xzr
	and	x9, x8, #0x7ffffffe
	add	x11, x22, #16
	.p2align	5, , 16
.LBB24_11:                              // %vector.body
                                        // =>This Inner Loop Header: Depth=1
	add	w12, w10, #1
	stur	x21, [x11, #-16]
	stur	w10, [x11, #-8]
	add	x10, x10, #2
	str	x21, [x11]
	str	w12, [x11, #8]
	add	x11, x11, #32
	cmp	x9, x10
	b.ne	.LBB24_11
// %bb.12:                              // %middle.block
	cmp	x9, x8
	b.eq	.LBB24_19
.LBB24_13:                              // %.lr.ph.i.preheader
	sub	w10, w8, w9
	ands	x11, x10, #0x3
	mov	x10, x9
	b.eq	.LBB24_16
// %bb.14:                              // %.lr.ph.i.prol.preheader
	add	x10, x22, x9, lsl #4
	add	x12, x10, #8
	mov	x10, x9
	.p2align	5, , 16
.LBB24_15:                              // %.lr.ph.i.prol
                                        // =>This Inner Loop Header: Depth=1
	str	w10, [x12]
	add	x10, x10, #1
	subs	x11, x11, #1
	stur	x21, [x12, #-8]
	add	x12, x12, #16
	b.ne	.LBB24_15
.LBB24_16:                              // %.lr.ph.i.prol.loopexit
	sub	x9, x9, x8
	cmn	x9, #4
	b.hi	.LBB24_19
// %bb.17:                              // %.lr.ph.i.preheader17
	add	x9, x22, x10, lsl #4
	add	x9, x9, #32
	.p2align	5, , 16
.LBB24_18:                              // %.lr.ph.i
                                        // =>This Inner Loop Header: Depth=1
	add	w11, w10, #1
	stur	x21, [x9, #-32]
	stur	w10, [x9, #-24]
	stur	w11, [x9, #-8]
	add	w11, w10, #2
	stur	x21, [x9, #-16]
	str	w11, [x9, #8]
	add	w11, w10, #3
	add	x10, x10, #4
	str	x21, [x9]
	str	x21, [x9, #16]
	str	w11, [x9, #24]
	add	x9, x9, #64
	cmp	x10, x8
	b.ne	.LBB24_18
.LBB24_19:                              // %ggml_threadpool_new_impl.exit
	str	x22, [x21, #272]
	stur	x21, [x29, #-8]
	cmp	w20, #1
	b.eq	.LBB24_6
.LBB24_20:
	adrp	x21, .L__unnamed_1
	add	x21, x21, :lo12:.L__unnamed_1
	mov	w1, w19
	mov	x0, x21
	mov	w2, w20
	bl	__kmpc_push_num_threads
	adrp	x2, ggml_graph_compute.omp_outlined
	add	x2, x2, :lo12:ggml_graph_compute.omp_outlined
	add	x3, x29, #28
	sub	x4, x29, #8
	mov	x0, x21
	mov	w1, #2                          // =0x2
	bl	__kmpc_fork_call
	ldur	x21, [x29, #-8]
	ldr	w19, [x21, #296]
	cbnz	x24, .LBB24_22
.LBB24_21:                              // %ggml_threadpool_free.exit
	ldrsw	x8, [x21, #280]
	lsl	x1, x8, #4
	ldr	x0, [x21, #272]
	bl	ggml_aligned_free
	mov	x0, x21
	mov	w1, #320                        // =0x140
	bl	ggml_aligned_free
.LBB24_22:
	mov	w0, w19
	add	sp, sp, #544
	.cfi_def_cfa wsp, 80
	ldp	x20, x19, [sp, #64]             // 16-byte Folded Reload
	ldr	x28, [sp, #16]                  // 8-byte Folded Reload
	ldp	x22, x21, [sp, #48]             // 16-byte Folded Reload
	ldp	x24, x23, [sp, #32]             // 16-byte Folded Reload
	ldp	x29, x30, [sp], #80             // 16-byte Folded Reload
	.cfi_def_cfa_offset 0
	.cfi_restore w19
	.cfi_restore w20
	.cfi_restore w21
	.cfi_restore w22
	.cfi_restore w23
	.cfi_restore w24
	.cfi_restore w28
	.cfi_restore w30
	.cfi_restore w29
	ret
.LBB24_23:
	.cfi_restore_state
	adrp	x0, .L.str.1
	add	x0, x0, :lo12:.L.str.1
	adrp	x2, .L.str.2
	add	x2, x2, :lo12:.L.str.2
	adrp	x3, .L.str.19
	add	x3, x3, :lo12:.L.str.19
	mov	w1, #13752                      // =0x35b8
	bl	ggml_abort
.LBB24_24:
	adrp	x0, .L.str.1
	add	x0, x0, :lo12:.L.str.1
	adrp	x2, .L.str.2
	add	x2, x2, :lo12:.L.str.2
	adrp	x3, .L.str.20
	add	x3, x3, :lo12:.L.str.20
	mov	w1, #13753                      // =0x35b9
	bl	ggml_abort
.LBB24_25:
	adrp	x0, .L.str.1
	add	x0, x0, :lo12:.L.str.1
	adrp	x2, .L.str.2
	add	x2, x2, :lo12:.L.str.2
	adrp	x3, .L.str.21
	add	x3, x3, :lo12:.L.str.21
	mov	w1, #13754                      // =0x35ba
	bl	ggml_abort
.Lfunc_end24:
	.size	ggml_graph_compute, .Lfunc_end24-ggml_graph_compute
	.cfi_endproc
                                        // -- End function
	.globl	ggml_cpu_init                   // -- Begin function ggml_cpu_init
	.p2align	4
	.type	ggml_cpu_init,@function
ggml_cpu_init:                          // @ggml_cpu_init
	.cfi_startproc
// %bb.0:
	sub	sp, sp, #192
	.cfi_def_cfa_offset 192
	stp	d15, d14, [sp, #32]             // 16-byte Folded Spill
	stp	d13, d12, [sp, #48]             // 16-byte Folded Spill
	stp	d11, d10, [sp, #64]             // 16-byte Folded Spill
	stp	d9, d8, [sp, #80]               // 16-byte Folded Spill
	stp	x29, x30, [sp, #96]             // 16-byte Folded Spill
	stp	x28, x27, [sp, #112]            // 16-byte Folded Spill
	stp	x26, x25, [sp, #128]            // 16-byte Folded Spill
	stp	x24, x23, [sp, #144]            // 16-byte Folded Spill
	stp	x22, x21, [sp, #160]            // 16-byte Folded Spill
	stp	x20, x19, [sp, #176]            // 16-byte Folded Spill
	add	x29, sp, #96
	.cfi_def_cfa w29, 96
	.cfi_offset w19, -8
	.cfi_offset w20, -16
	.cfi_offset w21, -24
	.cfi_offset w22, -32
	.cfi_offset w23, -40
	.cfi_offset w24, -48
	.cfi_offset w25, -56
	.cfi_offset w26, -64
	.cfi_offset w27, -72
	.cfi_offset w28, -80
	.cfi_offset w30, -88
	.cfi_offset w29, -96
	.cfi_offset b8, -104
	.cfi_offset b9, -112
	.cfi_offset b10, -120
	.cfi_offset b11, -128
	.cfi_offset b12, -136
	.cfi_offset b13, -144
	.cfi_offset b14, -152
	.cfi_offset b15, -160
	add	x0, sp, #8
	stp	xzr, xzr, [sp, #16]
	str	xzr, [sp, #8]
	bl	ggml_init
	bl	ggml_free
	bl	ggml_critical_section_start
	adrp	x20, ggml_cpu_init.is_first_call
	ldrb	w8, [x20, :lo12:ggml_cpu_init.is_first_call]
	tbnz	w8, #0, .LBB25_4
// %bb.1:
	bl	ggml_time_us
	mov	w8, #16938                      // =0x422a
	adrp	x21, :got:ggml_table_f32_f16
	fmov	s11, #1.00000000
	movk	w8, #16204, lsl #16
	ldr	x21, [x21, :got_lo12:ggml_table_f32_f16]
	mov	x19, xzr
	fmov	s8, w8
	mov	w8, #10003                      // =0x2713
	mov	w22, #125829120                 // =0x7800000
	movk	w8, #15671, lsl #16
	mov	w23, #1073741824                // =0x40000000
	fmov	s10, w8
	mov	w8, #2004877312                 // =0x77800000
	mov	w24, #-16777216                 // =0xff000000
	fmov	s12, w8
	mov	w8, #142606336                  // =0x8800000
	mov	w25, #32256                     // =0x7e00
	fmov	s13, w8
	mov	w8, #56099                      // =0xdb23
	adrp	x26, ggml_table_gelu_f16
	add	x26, x26, :lo12:ggml_table_gelu_f16
	movk	w8, #49113, lsl #16
	fmov	s14, w8
	adrp	x27, ggml_table_gelu_quick_f16
	add	x27, x27, :lo12:ggml_table_gelu_quick_f16
	.p2align	5, , 16
.LBB25_2:                               // =>This Inner Loop Header: Depth=1
	ldr	s15, [x21, x19, lsl #2]
	fmov	s0, #0.50000000
	fmul	s1, s15, s10
	fmul	s9, s15, s0
	fmul	s0, s15, s8
	fmadd	s1, s1, s15, s11
	fmul	s0, s0, s1
	bl	tanhf
	fadd	s0, s0, s11
	lsl	x28, x19, #1
	fmul	s0, s9, s0
	fabs	s1, s0
	fmov	w8, s0
	fmul	s1, s1, s12
	and	w10, w8, #0x7f800000
	ubfx	w11, w8, #23, #8
	lsl	w9, w8, #1
	lsr	w8, w8, #31
	add	w10, w10, w22
	cmp	w11, #113
	csel	w10, w23, w10, lo
	cmp	w9, w24
	fmul	s1, s1, s13
	fmov	s0, w10
	fadd	s0, s1, s0
	fmov	w10, s0
	fmul	s0, s15, s14
	lsr	w11, w10, #13
	and	w10, w10, #0xfff
	and	w11, w11, #0x7c00
	add	w10, w11, w10
	csel	w9, w25, w10, hi
	orr	w8, w9, w8, lsl #15
	strh	w8, [x26, x28]
	bl	expf
	fadd	s0, s0, s11
	add	x19, x19, #1
	fdiv	s0, s11, s0
	fmul	s0, s15, s0
	fabs	s1, s0
	fmov	w8, s0
	fmul	s1, s1, s12
	and	w9, w8, #0x7f800000
	ubfx	w10, w8, #23, #8
	lsl	w11, w8, #1
	lsr	w8, w8, #31
	add	w9, w9, w22
	cmp	w10, #113
	csel	w9, w23, w9, lo
	cmp	w11, w24
	fmul	s1, s1, s13
	fmov	s0, w9
	fadd	s0, s1, s0
	fmov	w9, s0
	lsr	w10, w9, #13
	and	w9, w9, #0xfff
	and	w10, w10, #0x7c00
	add	w9, w10, w9
	csel	w9, w25, w9, hi
	orr	w8, w9, w8, lsl #15
	strh	w8, [x27, x28]
	cmp	x19, #16, lsl #12               // =65536
	b.ne	.LBB25_2
// %bb.3:
	bl	ggml_time_us
	mov	w0, #16                         // =0x10
	bl	getauxval
	mov	x19, x0
	mov	w0, #26                         // =0x1a
	bl	getauxval
	adrp	x8, :got:ggml_arm_arch_features
	ubfx	w9, w19, #1, #1
	ldr	x8, [x8, :got_lo12:ggml_arm_arch_features]
	ubfx	w10, w19, #20, #1
	stp	w9, w10, [x8]
	ubfx	w9, w19, #22, #1
	ubfx	w10, w0, #13, #1
	stp	w10, w9, [x8, #8]
	ubfx	w9, w0, #23, #1
	str	w9, [x8, #20]
	mov	w8, #1                          // =0x1
	strb	w8, [x20, :lo12:ggml_cpu_init.is_first_call]
.LBB25_4:
	bl	ggml_critical_section_end
	.cfi_def_cfa wsp, 192
	ldp	d9, d8, [sp, #80]               // 16-byte Folded Reload
	ldp	d11, d10, [sp, #64]             // 16-byte Folded Reload
	ldp	d13, d12, [sp, #48]             // 16-byte Folded Reload
	ldp	d15, d14, [sp, #32]             // 16-byte Folded Reload
	ldp	x20, x19, [sp, #176]            // 16-byte Folded Reload
	ldp	x22, x21, [sp, #160]            // 16-byte Folded Reload
	ldp	x24, x23, [sp, #144]            // 16-byte Folded Reload
	ldp	x26, x25, [sp, #128]            // 16-byte Folded Reload
	ldp	x28, x27, [sp, #112]            // 16-byte Folded Reload
	ldp	x29, x30, [sp, #96]             // 16-byte Folded Reload
	add	sp, sp, #192
	.cfi_def_cfa_offset 0
	.cfi_restore w19
	.cfi_restore w20
	.cfi_restore w21
	.cfi_restore w22
	.cfi_restore w23
	.cfi_restore w24
	.cfi_restore w25
	.cfi_restore w26
	.cfi_restore w27
	.cfi_restore w28
	.cfi_restore w30
	.cfi_restore w29
	.cfi_restore b8
	.cfi_restore b9
	.cfi_restore b10
	.cfi_restore b11
	.cfi_restore b12
	.cfi_restore b13
	.cfi_restore b14
	.cfi_restore b15
	ret
.Lfunc_end25:
	.size	ggml_cpu_init, .Lfunc_end25-ggml_cpu_init
	.cfi_endproc
                                        // -- End function
	.p2align	4                               // -- Begin function ggml_graph_compute.omp_outlined
	.type	ggml_graph_compute.omp_outlined,@function
ggml_graph_compute.omp_outlined:        // @ggml_graph_compute.omp_outlined
	.cfi_startproc
// %bb.0:
	stp	x29, x30, [sp, #-48]!           // 16-byte Folded Spill
	.cfi_def_cfa_offset 48
	str	x21, [sp, #16]                  // 8-byte Folded Spill
	stp	x20, x19, [sp, #32]             // 16-byte Folded Spill
	mov	x29, sp
	.cfi_def_cfa w29, 48
	.cfi_offset w19, -8
	.cfi_offset w20, -16
	.cfi_offset w21, -32
	.cfi_offset w30, -40
	.cfi_offset w29, -48
	ldr	w20, [x0]
	adrp	x0, .L__unnamed_1
	add	x0, x0, :lo12:.L__unnamed_1
	mov	x19, x3
	mov	x21, x2
	mov	w1, w20
	bl	__kmpc_single
	cbz	w0, .LBB26_2
// %bb.1:
	bl	omp_get_num_threads
	ldr	x8, [x19]
	str	w0, [x21]
	mov	w1, w20
	str	w0, [x8, #284]
	adrp	x0, .L__unnamed_1
	add	x0, x0, :lo12:.L__unnamed_1
	bl	__kmpc_end_single
.LBB26_2:
	adrp	x0, .L__unnamed_3
	add	x0, x0, :lo12:.L__unnamed_3
	mov	w1, w20
	bl	__kmpc_barrier
	ldr	x8, [x19]
	ldr	x19, [x8, #272]
	bl	omp_get_thread_num
	add	x0, x19, w0, sxtw #4
	.cfi_def_cfa wsp, 48
	ldp	x20, x19, [sp, #32]             // 16-byte Folded Reload
	ldr	x21, [sp, #16]                  // 8-byte Folded Reload
	ldp	x29, x30, [sp], #48             // 16-byte Folded Reload
	.cfi_def_cfa_offset 0
	.cfi_restore w19
	.cfi_restore w20
	.cfi_restore w21
	.cfi_restore w30
	.cfi_restore w29
	b	ggml_graph_compute_thread
.Lfunc_end26:
	.size	ggml_graph_compute.omp_outlined, .Lfunc_end26-ggml_graph_compute.omp_outlined
	.cfi_endproc
                                        // -- End function
	.section	.rodata.cst16,"aM",@progbits,16
	.p2align	4, 0x0                          // -- Begin function ggml_graph_compute_thread
.LCPI27_0:
	.xword	0x0000000000000000              // fp128 0
	.xword	0x0000000000000000
	.text
	.p2align	4
	.type	ggml_graph_compute_thread,@function
ggml_graph_compute_thread:              // @ggml_graph_compute_thread
	.cfi_startproc
// %bb.0:
	stp	d15, d14, [sp, #-160]!          // 16-byte Folded Spill
	.cfi_def_cfa_offset 160
	stp	d13, d12, [sp, #16]             // 16-byte Folded Spill
	stp	d11, d10, [sp, #32]             // 16-byte Folded Spill
	stp	d9, d8, [sp, #48]               // 16-byte Folded Spill
	stp	x29, x30, [sp, #64]             // 16-byte Folded Spill
	stp	x28, x27, [sp, #80]             // 16-byte Folded Spill
	stp	x26, x25, [sp, #96]             // 16-byte Folded Spill
	stp	x24, x23, [sp, #112]            // 16-byte Folded Spill
	stp	x22, x21, [sp, #128]            // 16-byte Folded Spill
	stp	x20, x19, [sp, #144]            // 16-byte Folded Spill
	add	x29, sp, #64
	.cfi_def_cfa w29, 96
	.cfi_offset w19, -8
	.cfi_offset w20, -16
	.cfi_offset w21, -24
	.cfi_offset w22, -32
	.cfi_offset w23, -40
	.cfi_offset w24, -48
	.cfi_offset w25, -56
	.cfi_offset w26, -64
	.cfi_offset w27, -72
	.cfi_offset w28, -80
	.cfi_offset w30, -88
	.cfi_offset w29, -96
	.cfi_offset b8, -104
	.cfi_offset b9, -112
	.cfi_offset b10, -120
	.cfi_offset b11, -128
	.cfi_offset b12, -136
	.cfi_offset b13, -144
	.cfi_offset b14, -152
	.cfi_offset b15, -160
	.cfi_remember_state
	sub	sp, sp, #1344
	ldr	w8, [x0, #8]
	str	x0, [sp, #320]                  // 8-byte Folded Spill
	str	w8, [sp, #784]
	ldr	x9, [x0]
	ldp	x20, x10, [x9, #88]
	adrp	x0, .L__unnamed_1
	add	x0, x0, :lo12:.L__unnamed_1
	ldr	w8, [x9, #284]
	str	x9, [sp, #288]                  // 8-byte Folded Spill
	str	x10, [sp, #264]                 // 8-byte Folded Spill
	str	w8, [sp, #788]
	ldr	x8, [x10]
	str	x8, [sp, #792]
	ldr	x8, [x10, #8]
	str	x9, [sp, #808]
	str	x8, [sp, #800]
	ldr	w19, [x20, #4]
	bl	__kmpc_global_thread_num
	mov	w1, w0
	cmp	w19, #1
	b.lt	.LBB27_2520
// %bb.1:                               // %.lr.ph
	add	x8, sp, #784
	add	x9, sp, #1072
	str	x20, [sp, #280]                 // 8-byte Folded Spill
	add	x8, x8, #16
	mov	x21, xzr
	str	x8, [sp, #168]                  // 8-byte Folded Spill
	add	x8, sp, #816
	add	x10, x8, #16
	add	x8, x9, #64
	str	x8, [sp, #504]                  // 8-byte Folded Spill
	str	x10, [sp, #464]                 // 8-byte Folded Spill
	b	.LBB27_3
	.p2align	5, , 16
.LBB27_2:                               // %ggml_barrier.exit33
                                        //   in Loop: Header=BB27_3 Depth=1
	adrp	x0, .L__unnamed_1
	add	x0, x0, :lo12:.L__unnamed_1
	bl	__kmpc_global_thread_num
	mov	w1, w0
	cmp	x21, x19
	b.ge	.LBB27_2520
.LBB27_3:                               // =>This Loop Header: Depth=1
                                        //     Child Loop BB27_1736 Depth 2
                                        //       Child Loop BB27_1738 Depth 3
                                        //     Child Loop BB27_1683 Depth 2
                                        //       Child Loop BB27_1687 Depth 3
                                        //       Child Loop BB27_1690 Depth 3
                                        //       Child Loop BB27_1694 Depth 3
                                        //       Child Loop BB27_1697 Depth 3
                                        //       Child Loop BB27_1701 Depth 3
                                        //       Child Loop BB27_1705 Depth 3
                                        //       Child Loop BB27_1708 Depth 3
                                        //       Child Loop BB27_1712 Depth 3
                                        //       Child Loop BB27_1715 Depth 3
                                        //       Child Loop BB27_1719 Depth 3
                                        //       Child Loop BB27_1723 Depth 3
                                        //       Child Loop BB27_1726 Depth 3
                                        //     Child Loop BB27_1633 Depth 2
                                        //       Child Loop BB27_1637 Depth 3
                                        //       Child Loop BB27_1640 Depth 3
                                        //       Child Loop BB27_1644 Depth 3
                                        //       Child Loop BB27_1647 Depth 3
                                        //       Child Loop BB27_1651 Depth 3
                                        //       Child Loop BB27_1655 Depth 3
                                        //       Child Loop BB27_1658 Depth 3
                                        //       Child Loop BB27_1662 Depth 3
                                        //       Child Loop BB27_1665 Depth 3
                                        //       Child Loop BB27_1669 Depth 3
                                        //       Child Loop BB27_1672 Depth 3
                                        //     Child Loop BB27_2313 Depth 2
                                        //     Child Loop BB27_2317 Depth 2
                                        //     Child Loop BB27_1611 Depth 2
                                        //     Child Loop BB27_1606 Depth 2
                                        //     Child Loop BB27_2392 Depth 2
                                        //       Child Loop BB27_2396 Depth 3
                                        //     Child Loop BB27_2515 Depth 2
                                        //       Child Loop BB27_2517 Depth 3
                                        //     Child Loop BB27_2384 Depth 2
                                        //       Child Loop BB27_2386 Depth 3
                                        //     Child Loop BB27_2509 Depth 2
                                        //       Child Loop BB27_2511 Depth 3
                                        //     Child Loop BB27_2372 Depth 2
                                        //       Child Loop BB27_2376 Depth 3
                                        //     Child Loop BB27_2497 Depth 2
                                        //       Child Loop BB27_2501 Depth 3
                                        //       Child Loop BB27_2505 Depth 3
                                        //     Child Loop BB27_1578 Depth 2
                                        //       Child Loop BB27_1583 Depth 3
                                        //         Child Loop BB27_1587 Depth 4
                                        //           Child Loop BB27_1590 Depth 5
                                        //           Child Loop BB27_1593 Depth 5
                                        //           Child Loop BB27_1597 Depth 5
                                        //     Child Loop BB27_1558 Depth 2
                                        //       Child Loop BB27_1563 Depth 3
                                        //         Child Loop BB27_1567 Depth 4
                                        //           Child Loop BB27_1570 Depth 5
                                        //     Child Loop BB27_1534 Depth 2
                                        //       Child Loop BB27_1539 Depth 3
                                        //         Child Loop BB27_1543 Depth 4
                                        //           Child Loop BB27_1546 Depth 5
                                        //     Child Loop BB27_1509 Depth 2
                                        //       Child Loop BB27_1512 Depth 3
                                        //         Child Loop BB27_1515 Depth 4
                                        //           Child Loop BB27_1518 Depth 5
                                        //             Child Loop BB27_1521 Depth 6
                                        //     Child Loop BB27_1489 Depth 2
                                        //       Child Loop BB27_1492 Depth 3
                                        //         Child Loop BB27_1496 Depth 4
                                        //         Child Loop BB27_1499 Depth 4
                                        //     Child Loop BB27_1474 Depth 2
                                        //       Child Loop BB27_1477 Depth 3
                                        //         Child Loop BB27_1481 Depth 4
                                        //         Child Loop BB27_1484 Depth 4
                                        //     Child Loop BB27_1443 Depth 2
                                        //       Child Loop BB27_1446 Depth 3
                                        //         Child Loop BB27_1449 Depth 4
                                        //           Child Loop BB27_1452 Depth 5
                                        //             Child Loop BB27_1457 Depth 6
                                        //             Child Loop BB27_1468 Depth 6
                                        //     Child Loop BB27_1423 Depth 2
                                        //       Child Loop BB27_1426 Depth 3
                                        //         Child Loop BB27_1430 Depth 4
                                        //           Child Loop BB27_1436 Depth 5
                                        //     Child Loop BB27_1394 Depth 2
                                        //       Child Loop BB27_1397 Depth 3
                                        //         Child Loop BB27_1401 Depth 4
                                        //           Child Loop BB27_1405 Depth 5
                                        //           Child Loop BB27_1408 Depth 5
                                        //     Child Loop BB27_1210 Depth 2
                                        //       Child Loop BB27_1213 Depth 3
                                        //         Child Loop BB27_1216 Depth 4
                                        //           Child Loop BB27_1218 Depth 5
                                        //           Child Loop BB27_1222 Depth 5
                                        //           Child Loop BB27_1225 Depth 5
                                        //           Child Loop BB27_1230 Depth 5
                                        //             Child Loop BB27_1234 Depth 6
                                        //             Child Loop BB27_1237 Depth 6
                                        //           Child Loop BB27_1243 Depth 5
                                        //           Child Loop BB27_1247 Depth 5
                                        //           Child Loop BB27_1250 Depth 5
                                        //           Child Loop BB27_1254 Depth 5
                                        //           Child Loop BB27_1258 Depth 5
                                        //           Child Loop BB27_1261 Depth 5
                                        //           Child Loop BB27_1267 Depth 5
                                        //           Child Loop BB27_1270 Depth 5
                                        //           Child Loop BB27_1273 Depth 5
                                        //           Child Loop BB27_1278 Depth 5
                                        //           Child Loop BB27_1282 Depth 5
                                        //           Child Loop BB27_1285 Depth 5
                                        //           Child Loop BB27_1290 Depth 5
                                        //             Child Loop BB27_1294 Depth 6
                                        //             Child Loop BB27_1298 Depth 6
                                        //             Child Loop BB27_1301 Depth 6
                                        //           Child Loop BB27_1307 Depth 5
                                        //           Child Loop BB27_1310 Depth 5
                                        //           Child Loop BB27_1315 Depth 5
                                        //           Child Loop BB27_1319 Depth 5
                                        //           Child Loop BB27_1322 Depth 5
                                        //           Child Loop BB27_1327 Depth 5
                                        //           Child Loop BB27_1330 Depth 5
                                        //           Child Loop BB27_1334 Depth 5
                                        //           Child Loop BB27_1338 Depth 5
                                        //           Child Loop BB27_1341 Depth 5
                                        //           Child Loop BB27_1345 Depth 5
                                        //             Child Loop BB27_1349 Depth 6
                                        //             Child Loop BB27_1353 Depth 6
                                        //             Child Loop BB27_1356 Depth 6
                                        //           Child Loop BB27_1359 Depth 5
                                        //             Child Loop BB27_1363 Depth 6
                                        //             Child Loop BB27_1367 Depth 6
                                        //             Child Loop BB27_1370 Depth 6
                                        //           Child Loop BB27_1374 Depth 5
                                        //             Child Loop BB27_1378 Depth 6
                                        //             Child Loop BB27_1382 Depth 6
                                        //             Child Loop BB27_1385 Depth 6
                                        //     Child Loop BB27_1106 Depth 2
                                        //       Child Loop BB27_1123 Depth 3
                                        //         Child Loop BB27_1137 Depth 4
                                        //         Child Loop BB27_1141 Depth 4
                                        //         Child Loop BB27_1144 Depth 4
                                        //         Child Loop BB27_1155 Depth 4
                                        //         Child Loop BB27_1159 Depth 4
                                        //         Child Loop BB27_1163 Depth 4
                                        //         Child Loop BB27_1131 Depth 4
                                        //         Child Loop BB27_1149 Depth 4
                                        //       Child Loop BB27_1172 Depth 3
                                        //       Child Loop BB27_1175 Depth 3
                                        //       Child Loop BB27_1180 Depth 3
                                        //       Child Loop BB27_1184 Depth 3
                                        //       Child Loop BB27_1187 Depth 3
                                        //     Child Loop BB27_1080 Depth 2
                                        //       Child Loop BB27_1084 Depth 3
                                        //     Child Loop BB27_1888 Depth 2
                                        //       Child Loop BB27_1890 Depth 3
                                        //     Child Loop BB27_1051 Depth 2
                                        //       Child Loop BB27_1055 Depth 3
                                        //       Child Loop BB27_1059 Depth 3
                                        //       Child Loop BB27_1062 Depth 3
                                        //       Child Loop BB27_1065 Depth 3
                                        //         Child Loop BB27_1069 Depth 4
                                        //     Child Loop BB27_1041 Depth 2
                                        //       Child Loop BB27_1043 Depth 3
                                        //     Child Loop BB27_2164 Depth 2
                                        //     Child Loop BB27_2166 Depth 2
                                        //     Child Loop BB27_1002 Depth 2
                                        //       Child Loop BB27_1005 Depth 3
                                        //         Child Loop BB27_1008 Depth 4
                                        //           Child Loop BB27_1012 Depth 5
                                        //           Child Loop BB27_1015 Depth 5
                                        //           Child Loop BB27_1019 Depth 5
                                        //           Child Loop BB27_1022 Depth 5
                                        //           Child Loop BB27_1026 Depth 5
                                        //           Child Loop BB27_1029 Depth 5
                                        //     Child Loop BB27_978 Depth 2
                                        //       Child Loop BB27_981 Depth 3
                                        //         Child Loop BB27_985 Depth 4
                                        //           Child Loop BB27_990 Depth 5
                                        //     Child Loop BB27_959 Depth 2
                                        //       Child Loop BB27_962 Depth 3
                                        //         Child Loop BB27_965 Depth 4
                                        //           Child Loop BB27_969 Depth 5
                                        //     Child Loop BB27_916 Depth 2
                                        //       Child Loop BB27_919 Depth 3
                                        //         Child Loop BB27_924 Depth 4
                                        //           Child Loop BB27_928 Depth 5
                                        //             Child Loop BB27_934 Depth 6
                                        //           Child Loop BB27_941 Depth 5
                                        //             Child Loop BB27_947 Depth 6
                                        //     Child Loop BB27_878 Depth 2
                                        //       Child Loop BB27_881 Depth 3
                                        //         Child Loop BB27_886 Depth 4
                                        //           Child Loop BB27_894 Depth 5
                                        //             Child Loop BB27_900 Depth 6
                                        //     Child Loop BB27_852 Depth 2
                                        //       Child Loop BB27_856 Depth 3
                                        //         Child Loop BB27_865 Depth 4
                                        //     Child Loop BB27_832 Depth 2
                                        //       Child Loop BB27_835 Depth 3
                                        //         Child Loop BB27_838 Depth 4
                                        //           Child Loop BB27_842 Depth 5
                                        //           Child Loop BB27_845 Depth 5
                                        //     Child Loop BB27_2067 Depth 2
                                        //       Child Loop BB27_2070 Depth 3
                                        //         Child Loop BB27_2071 Depth 4
                                        //     Child Loop BB27_2083 Depth 2
                                        //       Child Loop BB27_2086 Depth 3
                                        //         Child Loop BB27_2089 Depth 4
                                        //           Child Loop BB27_2092 Depth 5
                                        //             Child Loop BB27_2096 Depth 6
                                        //               Child Loop BB27_2098 Depth 7
                                        //     Child Loop BB27_798 Depth 2
                                        //       Child Loop BB27_801 Depth 3
                                        //         Child Loop BB27_804 Depth 4
                                        //           Child Loop BB27_808 Depth 5
                                        //             Child Loop BB27_811 Depth 6
                                        //               Child Loop BB27_815 Depth 7
                                        //     Child Loop BB27_771 Depth 2
                                        //       Child Loop BB27_774 Depth 3
                                        //         Child Loop BB27_777 Depth 4
                                        //           Child Loop BB27_780 Depth 5
                                        //             Child Loop BB27_783 Depth 6
                                        //               Child Loop BB27_786 Depth 7
                                        //     Child Loop BB27_1850 Depth 2
                                        //       Child Loop BB27_1853 Depth 3
                                        //         Child Loop BB27_1856 Depth 4
                                        //           Child Loop BB27_1859 Depth 5
                                        //             Child Loop BB27_1863 Depth 6
                                        //               Child Loop BB27_1868 Depth 7
                                        //     Child Loop BB27_751 Depth 2
                                        //       Child Loop BB27_754 Depth 3
                                        //         Child Loop BB27_758 Depth 4
                                        //         Child Loop BB27_761 Depth 4
                                        //     Child Loop BB27_2236 Depth 2
                                        //       Child Loop BB27_2237 Depth 3
                                        //     Child Loop BB27_2256 Depth 2
                                        //       Child Loop BB27_2259 Depth 3
                                        //         Child Loop BB27_2263 Depth 4
                                        //           Child Loop BB27_2265 Depth 5
                                        //     Child Loop BB27_1834 Depth 2
                                        //       Child Loop BB27_1837 Depth 3
                                        //         Child Loop BB27_1841 Depth 4
                                        //         Child Loop BB27_1844 Depth 4
                                        //     Child Loop BB27_2241 Depth 2
                                        //       Child Loop BB27_2245 Depth 3
                                        //       Child Loop BB27_2249 Depth 3
                                        //     Child Loop BB27_2273 Depth 2
                                        //       Child Loop BB27_2276 Depth 3
                                        //         Child Loop BB27_2280 Depth 4
                                        //           Child Loop BB27_2284 Depth 5
                                        //           Child Loop BB27_2287 Depth 5
                                        //     Child Loop BB27_739 Depth 2
                                        //       Child Loop BB27_740 Depth 3
                                        //     Child Loop BB27_2154 Depth 2
                                        //       Child Loop BB27_2158 Depth 3
                                        //       Child Loop BB27_2162 Depth 3
                                        //     Child Loop BB27_681 Depth 2
                                        //       Child Loop BB27_685 Depth 3
                                        //       Child Loop BB27_688 Depth 3
                                        //       Child Loop BB27_692 Depth 3
                                        //       Child Loop BB27_695 Depth 3
                                        //       Child Loop BB27_699 Depth 3
                                        //       Child Loop BB27_703 Depth 3
                                        //       Child Loop BB27_706 Depth 3
                                        //       Child Loop BB27_710 Depth 3
                                        //       Child Loop BB27_713 Depth 3
                                        //       Child Loop BB27_717 Depth 3
                                        //       Child Loop BB27_721 Depth 3
                                        //       Child Loop BB27_724 Depth 3
                                        //     Child Loop BB27_1992 Depth 2
                                        //       Child Loop BB27_2003 Depth 3
                                        //       Child Loop BB27_2006 Depth 3
                                        //       Child Loop BB27_2010 Depth 3
                                        //       Child Loop BB27_2014 Depth 3
                                        //       Child Loop BB27_2017 Depth 3
                                        //       Child Loop BB27_2033 Depth 3
                                        //       Child Loop BB27_2037 Depth 3
                                        //       Child Loop BB27_2027 Depth 3
                                        //       Child Loop BB27_2031 Depth 3
                                        //       Child Loop BB27_2042 Depth 3
                                        //       Child Loop BB27_2045 Depth 3
                                        //       Child Loop BB27_2049 Depth 3
                                        //       Child Loop BB27_2052 Depth 3
                                        //       Child Loop BB27_2056 Depth 3
                                        //       Child Loop BB27_2060 Depth 3
                                        //       Child Loop BB27_2063 Depth 3
                                        //     Child Loop BB27_648 Depth 2
                                        //       Child Loop BB27_651 Depth 3
                                        //         Child Loop BB27_660 Depth 4
                                        //     Child Loop BB27_627 Depth 2
                                        //       Child Loop BB27_631 Depth 3
                                        //       Child Loop BB27_635 Depth 3
                                        //     Child Loop BB27_1815 Depth 2
                                        //       Child Loop BB27_1819 Depth 3
                                        //       Child Loop BB27_1823 Depth 3
                                        //     Child Loop BB27_2336 Depth 2
                                        //     Child Loop BB27_615 Depth 2
                                        //     Child Loop BB27_2343 Depth 2
                                        //     Child Loop BB27_2349 Depth 2
                                        //       Child Loop BB27_2355 Depth 3
                                        //       Child Loop BB27_2359 Depth 3
                                        //     Child Loop BB27_602 Depth 2
                                        //       Child Loop BB27_606 Depth 3
                                        //       Child Loop BB27_610 Depth 3
                                        //     Child Loop BB27_1799 Depth 2
                                        //       Child Loop BB27_1803 Depth 3
                                        //       Child Loop BB27_1807 Depth 3
                                        //     Child Loop BB27_573 Depth 2
                                        //       Child Loop BB27_579 Depth 3
                                        //       Child Loop BB27_583 Depth 3
                                        //       Child Loop BB27_586 Depth 3
                                        //     Child Loop BB27_2435 Depth 2
                                        //       Child Loop BB27_2438 Depth 3
                                        //         Child Loop BB27_2440 Depth 4
                                        //           Child Loop BB27_2443 Depth 5
                                        //             Child Loop BB27_2444 Depth 6
                                        //             Child Loop BB27_2447 Depth 6
                                        //               Child Loop BB27_2451 Depth 7
                                        //               Child Loop BB27_2455 Depth 7
                                        //               Child Loop BB27_2458 Depth 7
                                        //           Child Loop BB27_2462 Depth 5
                                        //             Child Loop BB27_2466 Depth 6
                                        //             Child Loop BB27_2470 Depth 6
                                        //             Child Loop BB27_2473 Depth 6
                                        //     Child Loop BB27_551 Depth 2
                                        //       Child Loop BB27_554 Depth 3
                                        //         Child Loop BB27_558 Depth 4
                                        //         Child Loop BB27_562 Depth 4
                                        //         Child Loop BB27_565 Depth 4
                                        //     Child Loop BB27_1902 Depth 2
                                        //       Child Loop BB27_1905 Depth 3
                                        //         Child Loop BB27_1907 Depth 4
                                        //     Child Loop BB27_2104 Depth 2
                                        //       Child Loop BB27_2108 Depth 3
                                        //     Child Loop BB27_1911 Depth 2
                                        //     Child Loop BB27_1918 Depth 2
                                        //       Child Loop BB27_1923 Depth 3
                                        //         Child Loop BB27_1925 Depth 4
                                        //           Child Loop BB27_1926 Depth 5
                                        //             Child Loop BB27_1931 Depth 6
                                        //     Child Loop BB27_519 Depth 2
                                        //       Child Loop BB27_522 Depth 3
                                        //         Child Loop BB27_524 Depth 4
                                        //     Child Loop BB27_1751 Depth 2
                                        //       Child Loop BB27_1761 Depth 3
                                        //         Child Loop BB27_1763 Depth 4
                                        //           Child Loop BB27_1765 Depth 5
                                        //             Child Loop BB27_1770 Depth 6
                                        //             Child Loop BB27_1775 Depth 6
                                        //     Child Loop BB27_477 Depth 2
                                        //       Child Loop BB27_480 Depth 3
                                        //         Child Loop BB27_483 Depth 4
                                        //           Child Loop BB27_488 Depth 5
                                        //           Child Loop BB27_491 Depth 5
                                        //           Child Loop BB27_496 Depth 5
                                        //           Child Loop BB27_500 Depth 5
                                        //           Child Loop BB27_503 Depth 5
                                        //     Child Loop BB27_421 Depth 2
                                        //       Child Loop BB27_424 Depth 3
                                        //         Child Loop BB27_427 Depth 4
                                        //           Child Loop BB27_431 Depth 5
                                        //             Child Loop BB27_435 Depth 6
                                        //             Child Loop BB27_438 Depth 6
                                        //         Child Loop BB27_441 Depth 4
                                        //           Child Loop BB27_445 Depth 5
                                        //             Child Loop BB27_449 Depth 6
                                        //             Child Loop BB27_452 Depth 6
                                        //         Child Loop BB27_455 Depth 4
                                        //           Child Loop BB27_458 Depth 5
                                        //             Child Loop BB27_462 Depth 6
                                        //             Child Loop BB27_466 Depth 6
                                        //             Child Loop BB27_469 Depth 6
                                        //     Child Loop BB27_364 Depth 2
                                        //       Child Loop BB27_367 Depth 3
                                        //         Child Loop BB27_370 Depth 4
                                        //           Child Loop BB27_375 Depth 5
                                        //           Child Loop BB27_382 Depth 5
                                        //           Child Loop BB27_385 Depth 5
                                        //           Child Loop BB27_389 Depth 5
                                        //           Child Loop BB27_393 Depth 5
                                        //           Child Loop BB27_396 Depth 5
                                        //           Child Loop BB27_400 Depth 5
                                        //           Child Loop BB27_403 Depth 5
                                        //           Child Loop BB27_407 Depth 5
                                        //           Child Loop BB27_411 Depth 5
                                        //           Child Loop BB27_414 Depth 5
                                        //     Child Loop BB27_329 Depth 2
                                        //       Child Loop BB27_332 Depth 3
                                        //         Child Loop BB27_335 Depth 4
                                        //           Child Loop BB27_340 Depth 5
                                        //           Child Loop BB27_343 Depth 5
                                        //           Child Loop BB27_348 Depth 5
                                        //           Child Loop BB27_352 Depth 5
                                        //           Child Loop BB27_355 Depth 5
                                        //     Child Loop BB27_288 Depth 2
                                        //       Child Loop BB27_291 Depth 3
                                        //         Child Loop BB27_294 Depth 4
                                        //           Child Loop BB27_299 Depth 5
                                        //           Child Loop BB27_302 Depth 5
                                        //           Child Loop BB27_306 Depth 5
                                        //           Child Loop BB27_309 Depth 5
                                        //           Child Loop BB27_314 Depth 5
                                        //           Child Loop BB27_318 Depth 5
                                        //           Child Loop BB27_321 Depth 5
                                        //     Child Loop BB27_275 Depth 2
                                        //       Child Loop BB27_279 Depth 3
                                        //     Child Loop BB27_1783 Depth 2
                                        //       Child Loop BB27_1785 Depth 3
                                        //     Child Loop BB27_2173 Depth 2
                                        //       Child Loop BB27_2176 Depth 3
                                        //         Child Loop BB27_2179 Depth 4
                                        //           Child Loop BB27_2183 Depth 5
                                        //     Child Loop BB27_254 Depth 2
                                        //       Child Loop BB27_257 Depth 3
                                        //         Child Loop BB27_260 Depth 4
                                        //           Child Loop BB27_264 Depth 5
                                        //     Child Loop BB27_1939 Depth 2
                                        //       Child Loop BB27_1942 Depth 3
                                        //         Child Loop BB27_1945 Depth 4
                                        //           Child Loop BB27_1949 Depth 5
                                        //     Child Loop BB27_2294 Depth 2
                                        //       Child Loop BB27_2297 Depth 3
                                        //         Child Loop BB27_2300 Depth 4
                                        //           Child Loop BB27_2304 Depth 5
                                        //     Child Loop BB27_2191 Depth 2
                                        //       Child Loop BB27_2194 Depth 3
                                        //         Child Loop BB27_2202 Depth 4
                                        //         Child Loop BB27_2199 Depth 4
                                        //     Child Loop BB27_2207 Depth 2
                                        //       Child Loop BB27_2210 Depth 3
                                        //         Child Loop BB27_2213 Depth 4
                                        //           Child Loop BB27_2216 Depth 5
                                        //             Child Loop BB27_2219 Depth 6
                                        //               Child Loop BB27_2222 Depth 7
                                        //                 Child Loop BB27_2225 Depth 8
                                        //                   Child Loop BB27_2229 Depth 9
                                        //                   Child Loop BB27_2232 Depth 9
                                        //     Child Loop BB27_1962 Depth 2
                                        //       Child Loop BB27_1965 Depth 3
                                        //         Child Loop BB27_1968 Depth 4
                                        //           Child Loop BB27_1971 Depth 5
                                        //             Child Loop BB27_1974 Depth 6
                                        //               Child Loop BB27_1977 Depth 7
                                        //                 Child Loop BB27_1980 Depth 8
                                        //                   Child Loop BB27_1984 Depth 9
                                        //                   Child Loop BB27_1987 Depth 9
                                        //     Child Loop BB27_212 Depth 2
                                        //       Child Loop BB27_215 Depth 3
                                        //         Child Loop BB27_218 Depth 4
                                        //           Child Loop BB27_221 Depth 5
                                        //             Child Loop BB27_224 Depth 6
                                        //               Child Loop BB27_227 Depth 7
                                        //                 Child Loop BB27_230 Depth 8
                                        //                   Child Loop BB27_234 Depth 9
                                        //                   Child Loop BB27_237 Depth 9
                                        //     Child Loop BB27_191 Depth 2
                                        //       Child Loop BB27_194 Depth 3
                                        //       Child Loop BB27_198 Depth 3
                                        //       Child Loop BB27_202 Depth 3
                                        //     Child Loop BB27_2321 Depth 2
                                        //     Child Loop BB27_2325 Depth 2
                                        //     Child Loop BB27_2406 Depth 2
                                        //     Child Loop BB27_175 Depth 2
                                        //       Child Loop BB27_179 Depth 3
                                        //       Child Loop BB27_182 Depth 3
                                        //     Child Loop BB27_153 Depth 2
                                        //       Child Loop BB27_156 Depth 3
                                        //         Child Loop BB27_160 Depth 4
                                        //           Child Loop BB27_164 Depth 5
                                        //           Child Loop BB27_167 Depth 5
                                        //     Child Loop BB27_132 Depth 2
                                        //       Child Loop BB27_135 Depth 3
                                        //         Child Loop BB27_139 Depth 4
                                        //           Child Loop BB27_143 Depth 5
                                        //           Child Loop BB27_146 Depth 5
                                        //     Child Loop BB27_106 Depth 2
                                        //       Child Loop BB27_109 Depth 3
                                        //         Child Loop BB27_113 Depth 4
                                        //           Child Loop BB27_117 Depth 5
                                        //           Child Loop BB27_120 Depth 5
                                        //     Child Loop BB27_2134 Depth 2
                                        //       Child Loop BB27_2137 Depth 3
                                        //         Child Loop BB27_2141 Depth 4
                                        //           Child Loop BB27_2145 Depth 5
                                        //           Child Loop BB27_2148 Depth 5
                                        //     Child Loop BB27_2115 Depth 2
                                        //       Child Loop BB27_2118 Depth 3
                                        //         Child Loop BB27_2122 Depth 4
                                        //           Child Loop BB27_2126 Depth 5
                                        //           Child Loop BB27_2129 Depth 5
                                        //     Child Loop BB27_83 Depth 2
                                        //       Child Loop BB27_87 Depth 3
                                        //       Child Loop BB27_90 Depth 3
                                        //     Child Loop BB27_56 Depth 2
                                        //       Child Loop BB27_60 Depth 3
                                        //       Child Loop BB27_64 Depth 3
                                        //       Child Loop BB27_67 Depth 3
                                        //     Child Loop BB27_2485 Depth 2
                                        //       Child Loop BB27_2489 Depth 3
                                        //       Child Loop BB27_2493 Depth 3
                                        //     Child Loop BB27_32 Depth 2
                                        //       Child Loop BB27_36 Depth 3
                                        //       Child Loop BB27_39 Depth 3
	ldr	x8, [sp, #288]                  // 8-byte Folded Reload
	ldr	w8, [x8, #264]
	cmp	x21, x8
	b.eq	.LBB27_2520
// %bb.4:                               //   in Loop: Header=BB27_3 Depth=1
	ldr	x8, [x20, #16]
	str	w1, [sp, #300]                  // 4-byte Folded Spill
	str	x21, [sp, #328]                 // 8-byte Folded Spill
	ldr	x8, [x8, x21, lsl #3]
	str	x8, [sp, #768]                  // 8-byte Folded Spill
	ldr	w8, [x8, #80]
	cbz	w8, .LBB27_7
// %bb.5:                               //   in Loop: Header=BB27_3 Depth=1
	ldr	x0, [sp, #768]                  // 8-byte Folded Reload
	bl	ggml_is_empty
	tbnz	w0, #0, .LBB27_7
// %bb.6:                               //   in Loop: Header=BB27_3 Depth=1
	ldr	x1, [sp, #768]                  // 8-byte Folded Reload
	add	x0, sp, #784
	bl	ggml_cpu_extra_compute_forward
	tbz	w0, #0, .LBB27_14
	.p2align	5, , 16
.LBB27_7:                               // %ggml_compute_forward.exit
                                        //   in Loop: Header=BB27_3 Depth=1
	ldp	x8, x21, [sp, #320]             // 16-byte Folded Reload
	ldr	w8, [x8, #8]
	cbz	w8, .LBB27_11
.LBB27_8:                               //   in Loop: Header=BB27_3 Depth=1
	ldr	x20, [sp, #280]                 // 8-byte Folded Reload
	add	x21, x21, #1
	ldrsw	x19, [x20, #4]
	cmp	x21, x19
	b.ge	.LBB27_2
// %bb.9:                               //   in Loop: Header=BB27_3 Depth=1
	ldr	x8, [sp, #320]                  // 8-byte Folded Reload
	ldr	x8, [x8]
	ldr	w8, [x8, #284]
	cmp	w8, #1
	b.eq	.LBB27_2
// %bb.10:                              //   in Loop: Header=BB27_3 Depth=1
	ldr	w1, [sp, #300]                  // 4-byte Folded Reload
	adrp	x0, .L__unnamed_2
	add	x0, x0, :lo12:.L__unnamed_2
	bl	__kmpc_barrier
	ldrsw	x19, [x20, #4]
	b	.LBB27_2
	.p2align	5, , 16
.LBB27_11:                              //   in Loop: Header=BB27_3 Depth=1
	ldr	x8, [sp, #264]                  // 8-byte Folded Reload
	ldr	x8, [x8, #32]
	cbz	x8, .LBB27_8
// %bb.12:                              //   in Loop: Header=BB27_3 Depth=1
	ldr	x9, [sp, #264]                  // 8-byte Folded Reload
	ldr	x0, [x9, #40]
	blr	x8
	tbz	w0, #0, .LBB27_8
// %bb.13:                              //   in Loop: Header=BB27_3 Depth=1
	ldr	x9, [sp, #288]                  // 8-byte Folded Reload
	add	w8, w21, #1
	str	w8, [x9, #264]
	mov	w8, #1                          // =0x1
	str	w8, [x9, #296]
	b	.LBB27_8
.LBB27_14:                              //   in Loop: Header=BB27_3 Depth=1
	ldr	x8, [sp, #768]                  // 8-byte Folded Reload
	ldr	w8, [x8, #80]
	sub	w8, w8, #1
	cmp	w8, #84
	b.hi	.LBB27_7
// %bb.15:                              //   in Loop: Header=BB27_3 Depth=1
	adrp	x11, .LJTI27_0
	add	x11, x11, :lo12:.LJTI27_0
.Ltmp0:
	adr	x9, .Ltmp0
	ldrsw	x10, [x11, x8, lsl #2]
	add	x9, x9, x10
	adrp	x20, :got:ggml_table_f32_f16
	ldr	x20, [x20, :got_lo12:ggml_table_f32_f16]
	br	x9
.LBB27_16:                              //   in Loop: Header=BB27_3 Depth=1
	ldr	x1, [sp, #768]                  // 8-byte Folded Reload
	add	x0, sp, #784
	bl	ggml_compute_forward_dup
	b	.LBB27_7
.LBB27_17:                              //   in Loop: Header=BB27_3 Depth=1
	ldr	x20, [sp, #768]                 // 8-byte Folded Reload
	ldr	x28, [x20, #152]
	ldr	w8, [x28]
	cmp	w8, #35
	b.hi	.LBB27_2799
// %bb.18:                              //   in Loop: Header=BB27_3 Depth=1
	mov	x10, #32204                     // =0x7dcc
	mov	w9, #1                          // =0x1
	movk	x10, #8447, lsl #16
	lsl	x9, x9, x8
	movk	x10, #12, lsl #32
	tst	x9, x10
	b.eq	.LBB27_2310
// %bb.19:                              //   in Loop: Header=BB27_3 Depth=1
	ldr	x1, [x20, #160]
	mov	x0, x28
	str	x1, [sp, #736]                  // 8-byte Folded Spill
	bl	ggml_are_same_shape
	tbnz	w0, #0, .LBB27_20
	b	.LBB27_2531
.LBB27_20:                              //   in Loop: Header=BB27_3 Depth=1
	mov	x0, x28
	mov	x1, x20
	bl	ggml_are_same_shape
	tbnz	w0, #0, .LBB27_21
	b	.LBB27_2531
.LBB27_21:                              //   in Loop: Header=BB27_3 Depth=1
	mov	x0, x28
	bl	ggml_nrows
	ldp	x9, x8, [x28, #16]
	str	x28, [sp, #728]                 // 8-byte Folded Spill
	ldr	x23, [x20, #16]
	mov	x19, x0
	str	x8, [sp, #752]                  // 8-byte Folded Spill
	ldp	x27, x8, [x28, #48]
	str	x9, [sp, #744]                  // 8-byte Folded Spill
	ldr	x21, [x28, #32]
	ldrsw	x22, [sp, #784]
	str	x8, [sp, #696]                  // 8-byte Folded Spill
	ldp	x9, x8, [x28, #64]
	ldr	w25, [sp, #788]
	str	x8, [sp, #680]                  // 8-byte Folded Spill
	ldr	x8, [sp, #736]                  // 8-byte Folded Reload
	str	x9, [sp, #688]                  // 8-byte Folded Spill
	ldp	x26, x9, [x8, #48]
	str	x9, [sp, #632]                  // 8-byte Folded Spill
	ldp	x9, x8, [x8, #64]
	str	x9, [sp, #616]                  // 8-byte Folded Spill
	ldp	x24, x9, [x20, #48]
	str	x8, [sp, #608]                  // 8-byte Folded Spill
	mov	x8, x20
	str	x9, [sp, #720]                  // 8-byte Folded Spill
	ldp	x10, x9, [x20, #64]
	ldr	w20, [x28]
	ldr	w28, [x8]
	mov	w0, w20
	str	x10, [sp, #712]                 // 8-byte Folded Spill
	str	x9, [sp, #704]                  // 8-byte Folded Spill
	bl	ggml_get_type_traits
	ldr	x8, [x0, #40]
	lsl	x9, x28, #5
	mov	w0, w20
	str	x8, [sp, #672]                  // 8-byte Folded Spill
	adrp	x8, type_traits_cpu
	add	x8, x8, :lo12:type_traits_cpu
	ldr	x28, [x8, x9]
	bl	ggml_type_size
	cmp	x27, x0
	b.ne	.LBB27_2537
// %bb.22:                              //   in Loop: Header=BB27_3 Depth=1
	str	x28, [sp, #664]                 // 8-byte Folded Spill
	cmp	x26, #4
	b.ne	.LBB27_2538
// %bb.23:                              //   in Loop: Header=BB27_3 Depth=1
	ldr	x8, [sp, #720]                  // 8-byte Folded Reload
	ldr	x28, [sp, #728]                 // 8-byte Folded Reload
	ldr	x9, [sp, #712]                  // 8-byte Folded Reload
	cmp	x24, x8
	b.hi	.LBB27_2539
// %bb.24:                              //   in Loop: Header=BB27_3 Depth=1
	cmp	x8, x9
	b.hi	.LBB27_2540
// %bb.25:                              //   in Loop: Header=BB27_3 Depth=1
	ldr	x8, [sp, #704]                  // 8-byte Folded Reload
	cmp	x9, x8
	b.hi	.LBB27_2541
// %bb.26:                              //   in Loop: Header=BB27_3 Depth=1
	ldr	w0, [x28]
	bl	ggml_is_quantized
	tbnz	w0, #0, .LBB27_27
	b	.LBB27_2542
.LBB27_27:                              //   in Loop: Header=BB27_3 Depth=1
	ldr	x8, [sp, #736]                  // 8-byte Folded Reload
	ldr	w8, [x8]
	cbnz	w8, .LBB27_2543
// %bb.28:                              //   in Loop: Header=BB27_3 Depth=1
	add	w8, w19, w25
	sub	w8, w8, #1
	sdiv	w9, w8, w25
	mul	w8, w9, w22
	add	w9, w8, w9
	cmp	w9, w19
	csel	w9, w9, w19, lt
	str	w9, [sp, #656]                  // 4-byte Folded Spill
	cmp	w8, w9
	b.ge	.LBB27_7
// %bb.29:                              // %.lr.ph.i.i809
                                        //   in Loop: Header=BB27_3 Depth=1
	ldr	x11, [sp, #744]                 // 8-byte Folded Reload
	sxtw	x26, w8
	add	x9, x11, #16
	ldr	x10, [sp, #800]
	mul	x9, x9, x22
	add	x10, x10, x9, lsl #2
	ldr	x9, [sp, #752]                  // 8-byte Folded Reload
	str	x10, [sp, #760]                 // 8-byte Folded Spill
	mul	x9, x21, x9
	str	x9, [sp, #640]                  // 8-byte Folded Spill
	and	x9, x11, #0x7fffffff
	sub	x8, x9, #1
	str	x8, [sp, #600]                  // 8-byte Folded Spill
	and	x8, x11, #0x3
	str	x8, [sp, #648]                  // 8-byte Folded Spill
	sub	x22, x8, x9
	mul	x8, x24, x23
	str	x8, [sp, #592]                  // 8-byte Folded Spill
	neg	w8, w21
	str	w8, [sp, #624]                  // 4-byte Folded Spill
	add	x8, x10, #8
	str	x8, [sp, #584]                  // 8-byte Folded Spill
	b	.LBB27_32
.LBB27_30:                              //   in Loop: Header=BB27_32 Depth=2
	mov	x0, x1
	ldr	x1, [sp, #760]                  // 8-byte Folded Reload
	ldr	x2, [sp, #592]                  // 8-byte Folded Reload
	bl	memcpy
.LBB27_31:                              //   in Loop: Header=BB27_32 Depth=2
	ldr	x28, [sp, #728]                 // 8-byte Folded Reload
	add	x26, x26, #1
	ldr	w8, [sp, #656]                  // 4-byte Folded Reload
	cmp	w8, w26
	b.eq	.LBB27_7
.LBB27_32:                              //   Parent Loop BB27_3 Depth=1
                                        // =>  This Loop Header: Depth=2
                                        //       Child Loop BB27_36 Depth 3
                                        //       Child Loop BB27_39 Depth 3
	ldr	x8, [sp, #640]                  // 8-byte Folded Reload
	sdiv	x27, x26, x8
	ldr	x9, [sp, #752]                  // 8-byte Folded Reload
	ldr	x19, [sp, #744]                 // 8-byte Folded Reload
	ldr	x1, [sp, #760]                  // 8-byte Folded Reload
	mov	x2, x19
	sxtw	x20, w27
	msub	x8, x20, x8, x26
	sdiv	x25, x8, x9
	sxtw	x23, w25
	msub	w8, w23, w9, w8
	ldr	x9, [x28, #248]
	sxtw	x21, w8
	ldr	x8, [sp, #696]                  // 8-byte Folded Reload
	nop
	madd	x8, x21, x8, x9
	ldr	x9, [sp, #688]                  // 8-byte Folded Reload
	nop
	madd	x8, x23, x9, x8
	ldr	x9, [sp, #680]                  // 8-byte Folded Reload
	nop
	madd	x0, x20, x9, x8
	ldr	x8, [sp, #736]                  // 8-byte Folded Reload
	ldr	x24, [x8, #248]
	ldr	x8, [sp, #768]                  // 8-byte Folded Reload
	ldr	x28, [x8, #248]
	ldr	x8, [sp, #672]                  // 8-byte Folded Reload
	blr	x8
	cmp	w19, #1
	b.lt	.LBB27_40
// %bb.33:                              // %.lr.ph.i.i.i817.preheader
                                        //   in Loop: Header=BB27_32 Depth=2
	ldr	x8, [sp, #616]                  // 8-byte Folded Reload
	mul	x8, x23, x8
	ldr	x9, [sp, #608]                  // 8-byte Folded Reload
	mul	x9, x20, x9
	ldr	x10, [sp, #600]                 // 8-byte Folded Reload
	cmp	x10, #3
	b.hs	.LBB27_35
// %bb.34:                              //   in Loop: Header=BB27_32 Depth=2
	mov	x11, xzr
	ldr	x10, [sp, #648]                 // 8-byte Folded Reload
	cbnz	x10, .LBB27_38
	b	.LBB27_40
.LBB27_35:                              // %.lr.ph.i.i.i817.preheader1521
                                        //   in Loop: Header=BB27_32 Depth=2
	ldr	w11, [sp, #624]                 // 4-byte Folded Reload
	mov	x10, xzr
	mul	w11, w11, w27
	ldr	x12, [sp, #752]                 // 8-byte Folded Reload
	sub	w11, w11, w25
	madd	w11, w12, w11, w26
	ldr	x12, [sp, #632]                 // 8-byte Folded Reload
	sxtw	x11, w11
	madd	x11, x12, x11, x9
	add	x12, x24, x8
	add	x11, x12, x11
	ldr	x12, [sp, #584]                 // 8-byte Folded Reload
	add	x11, x11, #8
	.p2align	5, , 16
.LBB27_36:                              // %.lr.ph.i.i.i817
                                        //   Parent Loop BB27_3 Depth=1
                                        //     Parent Loop BB27_32 Depth=2
                                        // =>    This Inner Loop Header: Depth=3
	ldur	s0, [x11, #-8]
	sub	x10, x10, #4
	ldp	s1, s2, [x12, #-8]
	fadd	s0, s0, s1
	stur	s0, [x12, #-8]
	ldur	s0, [x11, #-4]
	fadd	s0, s0, s2
	ldp	s1, s2, [x12]
	stur	s0, [x12, #-4]
	ldr	s0, [x11]
	fadd	s0, s0, s1
	str	s0, [x12]
	ldr	s0, [x11, #4]
	add	x11, x11, #16
	fadd	s0, s0, s2
	str	s0, [x12, #4]
	add	x12, x12, #16
	cmp	x22, x10
	b.ne	.LBB27_36
// %bb.37:                              // %ggml_vec_acc_f32.exit.i.i813.loopexit.unr-lcssa.loopexit
                                        //   in Loop: Header=BB27_32 Depth=2
	neg	x11, x10
	ldr	x10, [sp, #648]                 // 8-byte Folded Reload
	cbz	x10, .LBB27_40
.LBB27_38:                              // %.lr.ph.i.i.i817.epil.preheader
                                        //   in Loop: Header=BB27_32 Depth=2
	ldr	w13, [sp, #624]                 // 4-byte Folded Reload
	neg	w12, w25
	madd	w12, w13, w27, w12
	ldr	x13, [sp, #752]                 // 8-byte Folded Reload
	ldr	x10, [sp, #760]                 // 8-byte Folded Reload
	add	x10, x10, x11, lsl #2
	madd	w12, w13, w12, w26
	ldr	x13, [sp, #632]                 // 8-byte Folded Reload
	sxtw	x12, w12
	mul	x12, x13, x12
	add	x9, x12, x9
	add	x8, x9, x8
	ldr	x9, [sp, #648]                  // 8-byte Folded Reload
	add	x8, x8, x11, lsl #2
	add	x8, x24, x8
	.p2align	5, , 16
.LBB27_39:                              // %.lr.ph.i.i.i817.epil
                                        //   Parent Loop BB27_3 Depth=1
                                        //     Parent Loop BB27_32 Depth=2
                                        // =>    This Inner Loop Header: Depth=3
	ldr	s0, [x10]
	subs	x9, x9, #1
	ldr	s1, [x8], #4
	fadd	s0, s1, s0
	str	s0, [x10], #4
	b.ne	.LBB27_39
.LBB27_40:                              // %ggml_vec_acc_f32.exit.i.i813
                                        //   in Loop: Header=BB27_32 Depth=2
	ldr	x8, [sp, #720]                  // 8-byte Folded Reload
	nop
	madd	x8, x21, x8, x28
	ldr	x9, [sp, #712]                  // 8-byte Folded Reload
	nop
	madd	x8, x23, x9, x8
	ldr	x9, [sp, #704]                  // 8-byte Folded Reload
	nop
	madd	x1, x20, x9, x8
	ldr	x8, [sp, #664]                  // 8-byte Folded Reload
	cbz	x8, .LBB27_30
// %bb.41:                              //   in Loop: Header=BB27_32 Depth=2
	ldr	x0, [sp, #760]                  // 8-byte Folded Reload
	ldr	x2, [sp, #744]                  // 8-byte Folded Reload
	blr	x8
	b	.LBB27_31
.LBB27_42:                              //   in Loop: Header=BB27_3 Depth=1
	ldr	x24, [sp, #768]                 // 8-byte Folded Reload
	ldp	x28, x19, [x24, #152]
	ldr	w8, [x28]
	cmp	w8, #35
	b.hi	.LBB27_2477
// %bb.43:                              //   in Loop: Header=BB27_3 Depth=1
	mov	x10, #32716                     // =0x7fcc
	mov	w9, #1                          // =0x1
	movk	x10, #8447, lsl #16
	lsl	x9, x9, x8
	movk	x10, #12, lsl #32
	tst	x9, x10
	b.eq	.LBB27_2326
// %bb.44:                              //   in Loop: Header=BB27_3 Depth=1
	mov	x0, x28
	mov	x1, x24
	bl	ggml_are_same_shape
	tbnz	w0, #0, .LBB27_45
	b	.LBB27_2544
.LBB27_45:                              //   in Loop: Header=BB27_3 Depth=1
	mov	x0, x19
	bl	ggml_is_scalar
	tbnz	w0, #0, .LBB27_46
	b	.LBB27_2545
.LBB27_46:                              //   in Loop: Header=BB27_3 Depth=1
	ldr	x8, [x19, #248]
	mov	x0, x28
	mov	x20, x19
	ldr	w23, [sp, #788]
	ldr	s8, [x8]
	ldrsw	x8, [sp, #784]
	str	x8, [sp, #680]                  // 8-byte Folded Spill
	bl	ggml_nrows
	ldp	x9, x8, [x28, #48]
	mov	x19, x0
	ldp	x22, x27, [x24, #16]
	str	x9, [sp, #712]                  // 8-byte Folded Spill
	str	x8, [sp, #752]                  // 8-byte Folded Spill
	ldp	x9, x8, [x28, #64]
	ldp	x21, x26, [x24, #48]
	str	x8, [sp, #736]                  // 8-byte Folded Spill
	ldr	x8, [x24, #32]
	str	x9, [sp, #744]                  // 8-byte Folded Spill
	str	x8, [sp, #664]                  // 8-byte Folded Spill
	ldp	x8, x25, [x24, #64]
	ldr	w24, [x28]
	mov	w0, w24
	str	x8, [sp, #760]                  // 8-byte Folded Spill
	bl	ggml_get_type_traits
	ldr	x8, [x0, #40]
	lsl	x9, x24, #5
	mov	w0, w24
	str	x8, [sp, #728]                  // 8-byte Folded Spill
	adrp	x8, type_traits_cpu
	add	x8, x8, :lo12:type_traits_cpu
	ldr	x8, [x8, x9]
	str	x8, [sp, #720]                  // 8-byte Folded Spill
	bl	ggml_type_size
	ldr	x8, [sp, #712]                  // 8-byte Folded Reload
	cmp	x8, x0
	b.ne	.LBB27_2546
// %bb.47:                              //   in Loop: Header=BB27_3 Depth=1
	cmp	x21, x26
	b.hi	.LBB27_2547
// %bb.48:                              //   in Loop: Header=BB27_3 Depth=1
	ldr	x8, [sp, #760]                  // 8-byte Folded Reload
	ldr	x24, [sp, #768]                 // 8-byte Folded Reload
	cmp	x26, x8
	b.hi	.LBB27_2548
// %bb.49:                              //   in Loop: Header=BB27_3 Depth=1
	cmp	x8, x25
	b.hi	.LBB27_2549
// %bb.50:                              //   in Loop: Header=BB27_3 Depth=1
	ldr	w0, [x28]
	bl	ggml_is_quantized
	tbnz	w0, #0, .LBB27_51
	b	.LBB27_2550
.LBB27_51:                              //   in Loop: Header=BB27_3 Depth=1
	ldr	w8, [x24]
	ldr	w9, [x28]
	cmp	w8, w9
	b.ne	.LBB27_2551
// %bb.52:                              //   in Loop: Header=BB27_3 Depth=1
	ldr	w8, [x20]
	str	x26, [sp, #696]                 // 8-byte Folded Spill
	str	x21, [sp, #704]                 // 8-byte Folded Spill
	str	x28, [sp, #712]                 // 8-byte Folded Spill
	cbnz	w8, .LBB27_2552
// %bb.53:                              //   in Loop: Header=BB27_3 Depth=1
	add	w8, w23, w19
	sub	w8, w8, #1
	sdiv	w9, w8, w23
	ldr	x8, [sp, #680]                  // 8-byte Folded Reload
	mul	w8, w9, w8
	add	w9, w8, w9
	cmp	w9, w19
	csel	w9, w9, w19, lt
	str	w9, [sp, #688]                  // 4-byte Folded Spill
	cmp	w8, w9
	b.ge	.LBB27_7
// %bb.54:                              // %.lr.ph.i20.i792
                                        //   in Loop: Header=BB27_3 Depth=1
	ldr	x11, [sp, #680]                 // 8-byte Folded Reload
	and	x26, x22, #0x7fffffff
	sxtw	x23, w8
	and	x8, x22, #0x1
	add	x10, x22, #16
	str	x8, [sp, #672]                  // 8-byte Folded Spill
	sub	x8, x26, x8
	str	x8, [sp, #680]                  // 8-byte Folded Spill
	ldr	x8, [sp, #664]                  // 8-byte Folded Reload
	ldr	x9, [sp, #800]
	mul	x10, x10, x11
	mul	x28, x8, x27
	add	x19, x9, x10, lsl #2
	add	x8, x19, #4
	str	x8, [sp, #664]                  // 8-byte Folded Spill
	add	x8, x19, #8
	str	x8, [sp, #656]                  // 8-byte Folded Spill
	b	.LBB27_56
	.p2align	5, , 16
.LBB27_55:                              // %ggml_vec_acc1_f32.exit.i.i795
                                        //   in Loop: Header=BB27_56 Depth=2
	ldr	x8, [sp, #696]                  // 8-byte Folded Reload
	mov	x0, x19
	mov	x2, x22
	ldr	x9, [sp, #760]                  // 8-byte Folded Reload
	nop
	madd	x8, x21, x8, x24
	madd	x8, x20, x9, x8
	ldr	x9, [sp, #704]                  // 8-byte Folded Reload
	nop
	madd	x1, x25, x9, x8
	ldr	x8, [sp, #720]                  // 8-byte Folded Reload
	blr	x8
	ldr	w8, [sp, #688]                  // 4-byte Folded Reload
	add	x23, x23, #1
	cmp	w8, w23
	b.eq	.LBB27_7
.LBB27_56:                              //   Parent Loop BB27_3 Depth=1
                                        // =>  This Loop Header: Depth=2
                                        //       Child Loop BB27_60 Depth 3
                                        //       Child Loop BB27_64 Depth 3
                                        //       Child Loop BB27_67 Depth 3
	sdiv	x8, x23, x28
	mov	x1, x19
	mov	x2, x22
	sxtw	x25, w8
	msub	x8, x25, x28, x23
	sdiv	x9, x8, x27
	sxtw	x20, w9
	ldr	x9, [sp, #712]                  // 8-byte Folded Reload
	msub	w8, w20, w27, w8
	ldr	x9, [x9, #248]
	sxtw	x21, w8
	ldr	x8, [sp, #752]                  // 8-byte Folded Reload
	nop
	madd	x8, x21, x8, x9
	ldr	x9, [sp, #744]                  // 8-byte Folded Reload
	nop
	madd	x8, x20, x9, x8
	ldr	x9, [sp, #736]                  // 8-byte Folded Reload
	nop
	madd	x0, x25, x9, x8
	ldr	x8, [sp, #768]                  // 8-byte Folded Reload
	ldr	x24, [x8, #248]
	ldr	x8, [sp, #728]                  // 8-byte Folded Reload
	blr	x8
	cmp	w22, #1
	b.lt	.LBB27_55
// %bb.57:                              // %.lr.ph.i.i26.i.preheader
                                        //   in Loop: Header=BB27_56 Depth=2
	cmp	x26, #2
	b.hs	.LBB27_59
// %bb.58:                              //   in Loop: Header=BB27_56 Depth=2
	mov	x8, xzr
	b	.LBB27_62
.LBB27_59:                              // %vector.body.preheader
                                        //   in Loop: Header=BB27_56 Depth=2
	ldr	x8, [sp, #680]                  // 8-byte Folded Reload
	ldr	x9, [sp, #664]                  // 8-byte Folded Reload
	.p2align	5, , 16
.LBB27_60:                              // %vector.body
                                        //   Parent Loop BB27_3 Depth=1
                                        //     Parent Loop BB27_56 Depth=2
                                        // =>    This Inner Loop Header: Depth=3
	ldp	s0, s1, [x9, #-4]
	subs	x8, x8, #2
	fadd	s1, s8, s1
	fadd	s0, s8, s0
	stp	s0, s1, [x9, #-4]
	add	x9, x9, #8
	b.ne	.LBB27_60
// %bb.61:                              // %middle.block
                                        //   in Loop: Header=BB27_56 Depth=2
	ldr	x8, [sp, #680]                  // 8-byte Folded Reload
	ldr	x9, [sp, #672]                  // 8-byte Folded Reload
	cbz	x9, .LBB27_55
.LBB27_62:                              // %.lr.ph.i.i26.i.preheader523
                                        //   in Loop: Header=BB27_56 Depth=2
	sub	w9, w22, w8
	ands	x10, x9, #0x3
	mov	x9, x8
	b.eq	.LBB27_65
// %bb.63:                              // %.lr.ph.i.i26.i.prol.preheader
                                        //   in Loop: Header=BB27_56 Depth=2
	mov	x9, x8
	.p2align	5, , 16
.LBB27_64:                              // %.lr.ph.i.i26.i.prol
                                        //   Parent Loop BB27_3 Depth=1
                                        //     Parent Loop BB27_56 Depth=2
                                        // =>    This Inner Loop Header: Depth=3
	ldr	s0, [x19, x9, lsl #2]
	subs	x10, x10, #1
	fadd	s0, s8, s0
	str	s0, [x19, x9, lsl #2]
	add	x9, x9, #1
	b.ne	.LBB27_64
.LBB27_65:                              // %.lr.ph.i.i26.i.prol.loopexit
                                        //   in Loop: Header=BB27_56 Depth=2
	sub	x8, x8, x26
	cmn	x8, #4
	b.hi	.LBB27_55
// %bb.66:                              // %.lr.ph.i.i26.i.preheader1523
                                        //   in Loop: Header=BB27_56 Depth=2
	ldr	x10, [sp, #656]                 // 8-byte Folded Reload
	sub	x8, x26, x9
	add	x9, x10, x9, lsl #2
	.p2align	5, , 16
.LBB27_67:                              // %.lr.ph.i.i26.i
                                        //   Parent Loop BB27_3 Depth=1
                                        //     Parent Loop BB27_56 Depth=2
                                        // =>    This Inner Loop Header: Depth=3
	ldp	s0, s1, [x9, #-8]
	subs	x8, x8, #4
	ldp	s2, s3, [x9]
	fadd	s1, s8, s1
	fadd	s0, s8, s0
	fadd	s2, s8, s2
	stp	s0, s1, [x9, #-8]
	fadd	s0, s8, s3
	stp	s2, s0, [x9], #16
	b.ne	.LBB27_67
	b	.LBB27_55
.LBB27_68:                              //   in Loop: Header=BB27_3 Depth=1
	ldr	x24, [sp, #768]                 // 8-byte Folded Reload
	ldr	x20, [x24, #152]
	ldr	w8, [x20]
	cbnz	w8, .LBB27_2553
// %bb.69:                              //   in Loop: Header=BB27_3 Depth=1
	ldr	x19, [x24, #160]
	mov	x0, x20
	mov	x1, x24
	bl	ggml_are_same_shape
	tbnz	w0, #0, .LBB27_70
	b	.LBB27_2554
.LBB27_70:                              //   in Loop: Header=BB27_3 Depth=1
	mov	x0, x24
	bl	ggml_is_contiguous
	tbnz	w0, #0, .LBB27_71
	b	.LBB27_2532
.LBB27_71:                              //   in Loop: Header=BB27_3 Depth=1
	mov	x0, x20
	bl	ggml_is_contiguous
	tbnz	w0, #0, .LBB27_72
	b	.LBB27_2532
.LBB27_72:                              //   in Loop: Header=BB27_3 Depth=1
	ldpsw	x9, x8, [x24, #84]
	str	x8, [sp, #760]                  // 8-byte Folded Spill
	str	x9, [sp, #736]                  // 8-byte Folded Spill
	ldpsw	x9, x8, [x24, #92]
	str	x8, [sp, #728]                  // 8-byte Folded Spill
	ldr	w8, [x24, #100]
	str	x9, [sp, #752]                  // 8-byte Folded Spill
	cbnz	w8, .LBB27_77
// %bb.73:                              //   in Loop: Header=BB27_3 Depth=1
	ldr	w8, [sp, #784]
	cbnz	w8, .LBB27_75
// %bb.74:                              //   in Loop: Header=BB27_3 Depth=1
	ldr	x21, [x24, #248]
	mov	x0, x24
	ldr	x22, [x20, #248]
	bl	ggml_nbytes
	mov	x2, x0
	mov	x0, x21
	mov	x1, x22
	bl	memcpy
.LBB27_75:                              //   in Loop: Header=BB27_3 Depth=1
	ldr	x8, [sp, #808]
	ldr	w8, [x8, #284]
	cmp	w8, #1
	b.eq	.LBB27_77
// %bb.76:                              //   in Loop: Header=BB27_3 Depth=1
	ldr	w1, [sp, #300]                  // 4-byte Folded Reload
	adrp	x0, .L__unnamed_2
	add	x0, x0, :lo12:.L__unnamed_2
	bl	__kmpc_barrier
.LBB27_77:                              // %ggml_barrier.exit.i.i777
                                        //   in Loop: Header=BB27_3 Depth=1
	ldrsw	x8, [sp, #784]
	mov	x0, x19
	str	x8, [sp, #712]                  // 8-byte Folded Spill
	ldr	w26, [sp, #788]
	bl	ggml_nrows
	ldp	x28, x8, [x19, #32]
	mov	x21, x0
	ldp	x22, x23, [x19, #16]
	mov	x0, x20
	ldp	x24, x27, [x19, #48]
	str	x8, [sp, #720]                  // 8-byte Folded Spill
	ldp	x8, x25, [x19, #64]
	str	x8, [sp, #744]                  // 8-byte Folded Spill
	bl	ggml_element_size
	ldr	x12, [sp, #736]                 // 8-byte Folded Reload
	subs	x8, x22, #1
	str	x28, [sp, #704]                 // 8-byte Folded Spill
	ldr	x13, [sp, #728]                 // 8-byte Folded Reload
	csel	x8, xzr, x8, lo
	subs	x9, x23, #1
	csel	x9, xzr, x9, lo
	subs	x10, x28, #1
	ldr	x11, [sp, #720]                 // 8-byte Folded Reload
	csel	x10, xzr, x10, lo
	madd	x9, x9, x12, x13
	ldr	x12, [sp, #760]                 // 8-byte Folded Reload
	subs	x11, x11, #1
	csel	x11, xzr, x11, lo
	madd	x9, x10, x12, x9
	ldr	x10, [sp, #752]                 // 8-byte Folded Reload
	nop
	madd	x9, x11, x10, x9
	madd	x28, x0, x8, x9
	ldr	x0, [sp, #768]                  // 8-byte Folded Reload
	bl	ggml_nbytes
	cmp	x28, x0
	b.hs	.LBB27_2555
// %bb.78:                              //   in Loop: Header=BB27_3 Depth=1
	mov	x0, x20
	bl	ggml_nbytes
	cmp	x28, x0
	b.hs	.LBB27_2556
// %bb.79:                              //   in Loop: Header=BB27_3 Depth=1
	ldr	x30, [sp, #736]                 // 8-byte Folded Reload
	cmp	x24, #4
	b.ne	.LBB27_2557
// %bb.80:                              //   in Loop: Header=BB27_3 Depth=1
	add	w8, w26, w21
	sub	w8, w8, #1
	sdiv	w9, w8, w26
	ldr	x8, [sp, #712]                  // 8-byte Folded Reload
	smull	x8, w8, w9
	add	w9, w8, w9
	cmp	w9, w21
	csel	w10, w9, w21, lt
	cmp	w8, w10
	b.ge	.LBB27_7
// %bb.81:                              // %.lr.ph.i.i778
                                        //   in Loop: Header=BB27_3 Depth=1
	ldr	x9, [sp, #768]                  // 8-byte Folded Reload
	and	x14, x22, #0x7fffffff
	and	x11, x22, #0x3
	ldr	x12, [sp, #704]                 // 8-byte Folded Reload
	sxtw	x10, w10
	sub	x13, x14, #1
	ldr	x0, [x20, #248]
	sub	x14, x11, x14
	ldr	x1, [sp, #728]                  // 8-byte Folded Reload
	add	x0, x0, x1
	ldr	x15, [x9, #248]
	mul	x9, x12, x23
	neg	w12, w12
	add	x15, x15, x1
	ldr	x16, [x19, #248]
	add	x1, x0, #8
	add	x2, x16, #8
	add	x17, x15, #8
	b	.LBB27_83
	.p2align	5, , 16
.LBB27_82:                              // %ggml_vec_add_f32.exit.i.i783
                                        //   in Loop: Header=BB27_83 Depth=2
	add	x8, x8, #1
	cmp	x8, x10
	b.eq	.LBB27_7
.LBB27_83:                              //   Parent Loop BB27_3 Depth=1
                                        // =>  This Loop Header: Depth=2
                                        //       Child Loop BB27_87 Depth 3
                                        //       Child Loop BB27_90 Depth 3
	cmp	w22, #1
	b.lt	.LBB27_82
// %bb.84:                              // %.lr.ph.i.i.i786.preheader
                                        //   in Loop: Header=BB27_83 Depth=2
	sdiv	x3, x8, x9
	ldr	x19, [sp, #760]                 // 8-byte Folded Reload
	ldr	x20, [sp, #744]                 // 8-byte Folded Reload
	sxtw	x4, w3
	msub	x5, x4, x9, x8
	sdiv	x6, x5, x23
	ldr	x5, [sp, #752]                  // 8-byte Folded Reload
	sxtw	x7, w6
	smull	x5, w4, w5
	mul	x4, x4, x25
	smull	x19, w7, w19
	mul	x7, x7, x20
	cmp	x13, #3
	b.hs	.LBB27_86
// %bb.85:                              //   in Loop: Header=BB27_83 Depth=2
	mov	x20, xzr
	cbnz	x11, .LBB27_89
	b	.LBB27_82
.LBB27_86:                              // %.lr.ph.i.i.i786.preheader1524
                                        //   in Loop: Header=BB27_83 Depth=2
	mul	w21, w12, w3
	add	x28, x2, x4
	mov	x20, xzr
	sub	w21, w21, w6
	madd	w21, w23, w21, w8
	sxtw	x26, w21
	smaddl	x21, w30, w21, x19
	madd	x26, x27, x26, x7
	add	x24, x21, x5
	add	x21, x17, x24
	add	x24, x1, x24
	add	x26, x28, x26
	.p2align	5, , 16
.LBB27_87:                              // %.lr.ph.i.i.i786
                                        //   Parent Loop BB27_3 Depth=1
                                        //     Parent Loop BB27_83 Depth=2
                                        // =>    This Inner Loop Header: Depth=3
	ldur	s0, [x24, #-8]
	sub	x20, x20, #4
	ldur	s1, [x26, #-8]
	fadd	s0, s0, s1
	stur	s0, [x21, #-8]
	ldur	s0, [x24, #-4]
	ldur	s1, [x26, #-4]
	fadd	s0, s0, s1
	stur	s0, [x21, #-4]
	ldr	s0, [x24]
	ldr	s1, [x26]
	fadd	s0, s0, s1
	str	s0, [x21]
	ldr	s0, [x24, #4]
	ldr	s1, [x26, #4]
	add	x24, x24, #16
	add	x26, x26, #16
	fadd	s0, s0, s1
	str	s0, [x21, #4]
	add	x21, x21, #16
	cmp	x14, x20
	b.ne	.LBB27_87
// %bb.88:                              // %ggml_vec_add_f32.exit.i.i783.loopexit.unr-lcssa.loopexit
                                        //   in Loop: Header=BB27_83 Depth=2
	neg	x20, x20
	cbz	x11, .LBB27_82
.LBB27_89:                              // %.lr.ph.i.i.i786.epil.preheader
                                        //   in Loop: Header=BB27_83 Depth=2
	mul	w3, w12, w3
	sub	w3, w3, w6
	madd	w3, w23, w3, w8
	sxtw	x6, w3
	smaddl	x3, w30, w3, x19
	madd	x6, x27, x6, x7
	add	x3, x3, x5
	add	x5, x3, x20, lsl #2
	add	x4, x6, x4
	add	x3, x15, x5
	add	x5, x0, x5
	mov	x6, x11
	add	x4, x4, x20, lsl #2
	add	x4, x16, x4
	.p2align	5, , 16
.LBB27_90:                              // %.lr.ph.i.i.i786.epil
                                        //   Parent Loop BB27_3 Depth=1
                                        //     Parent Loop BB27_83 Depth=2
                                        // =>    This Inner Loop Header: Depth=3
	ldr	s0, [x5], #4
	subs	x6, x6, #1
	ldr	s1, [x4], #4
	fadd	s0, s0, s1
	str	s0, [x3], #4
	b.ne	.LBB27_90
	b	.LBB27_82
.LBB27_91:                              //   in Loop: Header=BB27_3 Depth=1
	ldr	x1, [sp, #768]                  // 8-byte Folded Reload
	add	x0, sp, #784
	bl	ggml_compute_forward_sub
	b	.LBB27_7
.LBB27_92:                              //   in Loop: Header=BB27_3 Depth=1
	ldr	x1, [sp, #768]                  // 8-byte Folded Reload
	add	x0, sp, #784
	bl	ggml_compute_forward_mul
	b	.LBB27_7
.LBB27_93:                              //   in Loop: Header=BB27_3 Depth=1
	ldr	x1, [sp, #768]                  // 8-byte Folded Reload
	add	x0, sp, #784
	bl	ggml_compute_forward_div
	b	.LBB27_7
.LBB27_94:                              //   in Loop: Header=BB27_3 Depth=1
	ldr	x1, [sp, #768]                  // 8-byte Folded Reload
	add	x0, sp, #784
	bl	ggml_compute_forward_sqr
	b	.LBB27_7
.LBB27_95:                              //   in Loop: Header=BB27_3 Depth=1
	ldr	x1, [sp, #768]                  // 8-byte Folded Reload
	add	x0, sp, #784
	bl	ggml_compute_forward_sqrt
	b	.LBB27_7
.LBB27_96:                              //   in Loop: Header=BB27_3 Depth=1
	ldr	x1, [sp, #768]                  // 8-byte Folded Reload
	add	x0, sp, #784
	bl	ggml_compute_forward_log
	b	.LBB27_7
.LBB27_97:                              //   in Loop: Header=BB27_3 Depth=1
	ldr	x1, [sp, #768]                  // 8-byte Folded Reload
	add	x0, sp, #784
	bl	ggml_compute_forward_sin
	b	.LBB27_7
.LBB27_98:                              //   in Loop: Header=BB27_3 Depth=1
	ldr	x1, [sp, #768]                  // 8-byte Folded Reload
	add	x0, sp, #784
	bl	ggml_compute_forward_cos
	b	.LBB27_7
.LBB27_99:                              //   in Loop: Header=BB27_3 Depth=1
	ldr	x8, [sp, #768]                  // 8-byte Folded Reload
	ldr	x8, [x8, #152]
	ldr	w9, [x8]
	cmp	w9, #30
	b.eq	.LBB27_2111
// %bb.100:                             //   in Loop: Header=BB27_3 Depth=1
	cmp	w9, #1
	b.eq	.LBB27_2130
// %bb.101:                             //   in Loop: Header=BB27_3 Depth=1
	cbnz	w9, .LBB27_2722
// %bb.102:                             //   in Loop: Header=BB27_3 Depth=1
	ldr	w9, [sp, #784]
	cbnz	w9, .LBB27_7
// %bb.103:                             //   in Loop: Header=BB27_3 Depth=1
	ldr	x9, [x8, #40]
	cmp	x9, #1
	b.lt	.LBB27_2408
// %bb.104:                             // %.preheader40.lr.ph.i.i
                                        //   in Loop: Header=BB27_3 Depth=1
	ldr	x17, [x8, #16]
	fmov	d0, xzr
	mov	x10, xzr
	ldp	x16, x12, [x8, #24]
	mov	x11, xzr
	ldp	x13, x14, [x8, #56]
	mov	w3, #8                          // =0x8
	ldr	x15, [x8, #72]
	and	x2, x17, #0x7fffffff
	ldr	x23, [sp, #768]                 // 8-byte Folded Reload
	and	x0, x17, #0x3
	sub	x1, x2, #1
	sub	x2, x0, x2
	b	.LBB27_106
.LBB27_105:                             // %._crit_edge47.i.i
                                        //   in Loop: Header=BB27_106 Depth=2
	add	x11, x11, #1
	add	x3, x3, x15
	add	x10, x10, x15
	cmp	x11, x9
	b.eq	.LBB27_2331
.LBB27_106:                             // %.preheader40.i.i
                                        //   Parent Loop BB27_3 Depth=1
                                        // =>  This Loop Header: Depth=2
                                        //       Child Loop BB27_109 Depth 3
                                        //         Child Loop BB27_113 Depth 4
                                        //           Child Loop BB27_117 Depth 5
                                        //           Child Loop BB27_120 Depth 5
	cmp	x12, #1
	b.lt	.LBB27_105
// %bb.107:                             // %.preheader.lr.ph.i.i762
                                        //   in Loop: Header=BB27_106 Depth=2
	mov	x4, xzr
	mov	x5, x10
	mov	x6, x3
	b	.LBB27_109
	.p2align	5, , 16
.LBB27_108:                             // %._crit_edge.i.i764
                                        //   in Loop: Header=BB27_109 Depth=3
	add	x4, x4, #1
	add	x6, x6, x14
	add	x5, x5, x14
	cmp	x4, x12
	b.eq	.LBB27_105
.LBB27_109:                             // %.preheader.i.i763
                                        //   Parent Loop BB27_3 Depth=1
                                        //     Parent Loop BB27_106 Depth=2
                                        // =>    This Loop Header: Depth=3
                                        //         Child Loop BB27_113 Depth 4
                                        //           Child Loop BB27_117 Depth 5
                                        //           Child Loop BB27_120 Depth 5
	cmp	x16, #1
	b.lt	.LBB27_108
// %bb.110:                             // %.lr.ph.i.i766
                                        //   in Loop: Header=BB27_109 Depth=3
	ldr	x20, [x8, #248]
	mov	x7, xzr
	add	x19, x20, x6
	add	x20, x20, x5
	b	.LBB27_113
	.p2align	5, , 16
.LBB27_111:                             //   in Loop: Header=BB27_113 Depth=4
	fmov	d1, xzr
.LBB27_112:                             // %ggml_vec_sum_f32_ggf.exit.i.i
                                        //   in Loop: Header=BB27_113 Depth=4
	fadd	d0, d0, d1
	add	x7, x7, #1
	add	x19, x19, x13
	add	x20, x20, x13
	cmp	x7, x16
	b.eq	.LBB27_108
.LBB27_113:                             //   Parent Loop BB27_3 Depth=1
                                        //     Parent Loop BB27_106 Depth=2
                                        //       Parent Loop BB27_109 Depth=3
                                        // =>      This Loop Header: Depth=4
                                        //           Child Loop BB27_117 Depth 5
                                        //           Child Loop BB27_120 Depth 5
	cmp	w17, #1
	b.lt	.LBB27_111
// %bb.114:                             // %.lr.ph.i.i.i770.preheader
                                        //   in Loop: Header=BB27_113 Depth=4
	cmp	x1, #3
	b.hs	.LBB27_116
// %bb.115:                             //   in Loop: Header=BB27_113 Depth=4
	mov	x21, xzr
	fmov	d1, xzr
	cbnz	x0, .LBB27_119
	b	.LBB27_112
	.p2align	5, , 16
.LBB27_116:                             // %.lr.ph.i.i.i770.preheader1495
                                        //   in Loop: Header=BB27_113 Depth=4
	fmov	d1, xzr
	mov	x21, xzr
	mov	x22, x19
	.p2align	5, , 16
.LBB27_117:                             // %.lr.ph.i.i.i770
                                        //   Parent Loop BB27_3 Depth=1
                                        //     Parent Loop BB27_106 Depth=2
                                        //       Parent Loop BB27_109 Depth=3
                                        //         Parent Loop BB27_113 Depth=4
                                        // =>        This Inner Loop Header: Depth=5
	ldp	s2, s3, [x22, #-8]
	sub	x21, x21, #4
	fcvt	d2, s2
	fadd	d1, d1, d2
	fcvt	d2, s3
	fadd	d1, d1, d2
	ldp	s2, s3, [x22], #16
	fcvt	d2, s2
	fadd	d1, d1, d2
	fcvt	d2, s3
	fadd	d1, d1, d2
	cmp	x2, x21
	b.ne	.LBB27_117
// %bb.118:                             // %ggml_vec_sum_f32_ggf.exit.i.i.loopexit.unr-lcssa.loopexit
                                        //   in Loop: Header=BB27_113 Depth=4
	neg	x21, x21
	cbz	x0, .LBB27_112
.LBB27_119:                             // %.lr.ph.i.i.i770.epil.preheader
                                        //   in Loop: Header=BB27_113 Depth=4
	add	x21, x20, x21, lsl #2
	mov	x22, x0
	.p2align	5, , 16
.LBB27_120:                             // %.lr.ph.i.i.i770.epil
                                        //   Parent Loop BB27_3 Depth=1
                                        //     Parent Loop BB27_106 Depth=2
                                        //       Parent Loop BB27_109 Depth=3
                                        //         Parent Loop BB27_113 Depth=4
                                        // =>        This Inner Loop Header: Depth=5
	ldr	s2, [x21], #4
	subs	x22, x22, #1
	fcvt	d2, s2
	fadd	d1, d1, d2
	b.ne	.LBB27_120
	b	.LBB27_112
.LBB27_121:                             //   in Loop: Header=BB27_3 Depth=1
	ldr	x8, [sp, #768]                  // 8-byte Folded Reload
	ldr	x8, [x8, #152]
	ldr	w9, [x8]
	cbnz	w9, .LBB27_2558
// %bb.122:                             //   in Loop: Header=BB27_3 Depth=1
	ldr	w9, [sp, #784]
	cbnz	w9, .LBB27_7
// %bb.123:                             //   in Loop: Header=BB27_3 Depth=1
	ldr	x9, [x8, #48]
	cmp	x9, #4
	b.ne	.LBB27_2723
// %bb.124:                             //   in Loop: Header=BB27_3 Depth=1
	ldr	x12, [sp, #768]                 // 8-byte Folded Reload
	ldr	x9, [x12, #48]
	cmp	x9, #4
	b.ne	.LBB27_2724
// %bb.125:                             //   in Loop: Header=BB27_3 Depth=1
	ldr	x9, [x12, #16]
	cmp	x9, #1
	b.ne	.LBB27_2725
// %bb.126:                             //   in Loop: Header=BB27_3 Depth=1
	ldr	x9, [x8, #24]
	ldr	x10, [x12, #24]
	cmp	x10, x9
	b.ne	.LBB27_2726
// %bb.127:                             //   in Loop: Header=BB27_3 Depth=1
	ldr	x10, [x8, #32]
	ldr	x11, [x12, #32]
	cmp	x11, x10
	b.ne	.LBB27_2727
// %bb.128:                             //   in Loop: Header=BB27_3 Depth=1
	ldr	x11, [x8, #40]
	ldr	x12, [x12, #40]
	cmp	x12, x11
	b.ne	.LBB27_2728
// %bb.129:                             // %.preheader74.i.i
                                        //   in Loop: Header=BB27_3 Depth=1
	cmp	x11, #1
	b.lt	.LBB27_7
// %bb.130:                             // %.preheader73.lr.ph.i.i737
                                        //   in Loop: Header=BB27_3 Depth=1
	ldr	x6, [sp, #768]                  // 8-byte Folded Reload
	mov	x12, xzr
	mov	x13, xzr
	ldr	x14, [x8, #16]
	mov	w5, #8                          // =0x8
	and	x4, x14, #0x7fffffff
	ldp	x15, x16, [x8, #56]
	ldr	x17, [x8, #72]
	ldp	x0, x1, [x6, #56]
	and	x2, x14, #0x3
	sub	x3, x4, #1
	ldr	x6, [x6, #72]
	sub	x4, x2, x4
	b	.LBB27_132
.LBB27_131:                             // %._crit_edge82.i.i
                                        //   in Loop: Header=BB27_132 Depth=2
	add	x13, x13, #1
	add	x5, x5, x17
	add	x12, x12, x17
	cmp	x13, x11
	b.eq	.LBB27_7
.LBB27_132:                             // %.preheader73.i.i739
                                        //   Parent Loop BB27_3 Depth=1
                                        // =>  This Loop Header: Depth=2
                                        //       Child Loop BB27_135 Depth 3
                                        //         Child Loop BB27_139 Depth 4
                                        //           Child Loop BB27_143 Depth 5
                                        //           Child Loop BB27_146 Depth 5
	cmp	x10, #1
	b.lt	.LBB27_131
// %bb.133:                             // %.preheader.lr.ph.i.i741
                                        //   in Loop: Header=BB27_132 Depth=2
	mul	x19, x13, x6
	mov	x7, xzr
	mov	x20, x12
	mov	x21, x5
	b	.LBB27_135
	.p2align	5, , 16
.LBB27_134:                             // %._crit_edge.i.i743
                                        //   in Loop: Header=BB27_135 Depth=3
	add	x7, x7, #1
	add	x21, x21, x16
	add	x20, x20, x16
	cmp	x7, x10
	b.eq	.LBB27_131
.LBB27_135:                             // %.preheader.i.i742
                                        //   Parent Loop BB27_3 Depth=1
                                        //     Parent Loop BB27_132 Depth=2
                                        // =>    This Loop Header: Depth=3
                                        //         Child Loop BB27_139 Depth 4
                                        //           Child Loop BB27_143 Depth 5
                                        //           Child Loop BB27_146 Depth 5
	cmp	x9, #1
	b.lt	.LBB27_134
// %bb.136:                             // %.lr.ph.i.i744
                                        //   in Loop: Header=BB27_135 Depth=3
	ldr	x23, [sp, #768]                 // 8-byte Folded Reload
	mov	x22, xzr
	ldr	x25, [x8, #248]
	add	x24, x25, x21
	ldr	x23, [x23, #248]
	add	x25, x25, x20
	madd	x23, x7, x1, x23
	add	x23, x23, x19
	b	.LBB27_139
	.p2align	5, , 16
.LBB27_137:                             //   in Loop: Header=BB27_139 Depth=4
	fmov	s0, wzr
.LBB27_138:                             // %ggml_vec_sum_f32.exit.i.i748
                                        //   in Loop: Header=BB27_139 Depth=4
	mul	x26, x22, x0
	add	x22, x22, #1
	add	x24, x24, x15
	add	x25, x25, x15
	str	s0, [x23, x26]
	cmp	x22, x9
	b.eq	.LBB27_134
.LBB27_139:                             //   Parent Loop BB27_3 Depth=1
                                        //     Parent Loop BB27_132 Depth=2
                                        //       Parent Loop BB27_135 Depth=3
                                        // =>      This Loop Header: Depth=4
                                        //           Child Loop BB27_143 Depth 5
                                        //           Child Loop BB27_146 Depth 5
	cmp	w14, #1
	b.lt	.LBB27_137
// %bb.140:                             // %.lr.ph.i.i.i751.preheader
                                        //   in Loop: Header=BB27_139 Depth=4
	cmp	x3, #3
	b.hs	.LBB27_142
// %bb.141:                             //   in Loop: Header=BB27_139 Depth=4
	mov	x26, xzr
	fmov	d0, xzr
	cbnz	x2, .LBB27_145
	b	.LBB27_147
	.p2align	5, , 16
.LBB27_142:                             // %.lr.ph.i.i.i751.preheader1498
                                        //   in Loop: Header=BB27_139 Depth=4
	fmov	d0, xzr
	mov	x26, xzr
	mov	x27, x24
	.p2align	5, , 16
.LBB27_143:                             // %.lr.ph.i.i.i751
                                        //   Parent Loop BB27_3 Depth=1
                                        //     Parent Loop BB27_132 Depth=2
                                        //       Parent Loop BB27_135 Depth=3
                                        //         Parent Loop BB27_139 Depth=4
                                        // =>        This Inner Loop Header: Depth=5
	ldp	s1, s2, [x27, #-8]
	sub	x26, x26, #4
	fcvt	d1, s1
	fadd	d0, d0, d1
	fcvt	d1, s2
	fadd	d0, d0, d1
	ldp	s1, s2, [x27], #16
	fcvt	d1, s1
	fadd	d0, d0, d1
	fcvt	d1, s2
	fadd	d0, d0, d1
	cmp	x4, x26
	b.ne	.LBB27_143
// %bb.144:                             // %._crit_edge.loopexit.i.i.i756.unr-lcssa.loopexit
                                        //   in Loop: Header=BB27_139 Depth=4
	neg	x26, x26
	cbz	x2, .LBB27_147
.LBB27_145:                             // %.lr.ph.i.i.i751.epil.preheader
                                        //   in Loop: Header=BB27_139 Depth=4
	add	x26, x25, x26, lsl #2
	mov	x27, x2
	.p2align	5, , 16
.LBB27_146:                             // %.lr.ph.i.i.i751.epil
                                        //   Parent Loop BB27_3 Depth=1
                                        //     Parent Loop BB27_132 Depth=2
                                        //       Parent Loop BB27_135 Depth=3
                                        //         Parent Loop BB27_139 Depth=4
                                        // =>        This Inner Loop Header: Depth=5
	ldr	s1, [x26], #4
	subs	x27, x27, #1
	fcvt	d1, s1
	fadd	d0, d0, d1
	b.ne	.LBB27_146
.LBB27_147:                             // %._crit_edge.loopexit.i.i.i756
                                        //   in Loop: Header=BB27_139 Depth=4
	fcvt	s0, d0
	b	.LBB27_138
.LBB27_148:                             //   in Loop: Header=BB27_3 Depth=1
	ldr	x8, [sp, #768]                  // 8-byte Folded Reload
	ldr	x8, [x8, #152]
	ldr	w9, [x8]
	cbnz	w9, .LBB27_2559
// %bb.149:                             //   in Loop: Header=BB27_3 Depth=1
	ldr	w9, [sp, #784]
	cbnz	w9, .LBB27_7
// %bb.150:                             //   in Loop: Header=BB27_3 Depth=1
	ldr	x9, [x8, #40]
	cmp	x9, #1
	b.lt	.LBB27_7
// %bb.151:                             // %.preheader71.lr.ph.i.i
                                        //   in Loop: Header=BB27_3 Depth=1
	ldr	x1, [x8, #16]
	mov	x10, xzr
	mov	x11, xzr
	ldr	x3, [sp, #768]                  // 8-byte Folded Reload
	mov	w6, #8                          // =0x8
	and	x5, x1, #0x7fffffff
	scvtf	s0, x1
	ldr	x15, [x8, #72]
	ldp	x0, x12, [x8, #24]
	and	x4, x1, #0x3
	sub	x2, x5, #1
	ldp	x13, x14, [x8, #56]
	sub	x5, x4, x5
	ldp	x16, x17, [x3, #56]
	ldr	x3, [x3, #72]
	b	.LBB27_153
.LBB27_152:                             // %._crit_edge79.i.i
                                        //   in Loop: Header=BB27_153 Depth=2
	add	x11, x11, #1
	add	x6, x6, x15
	add	x10, x10, x15
	cmp	x11, x9
	b.eq	.LBB27_7
.LBB27_153:                             // %.preheader71.i.i
                                        //   Parent Loop BB27_3 Depth=1
                                        // =>  This Loop Header: Depth=2
                                        //       Child Loop BB27_156 Depth 3
                                        //         Child Loop BB27_160 Depth 4
                                        //           Child Loop BB27_164 Depth 5
                                        //           Child Loop BB27_167 Depth 5
	cmp	x12, #1
	b.lt	.LBB27_152
// %bb.154:                             // %.preheader.lr.ph.i.i721
                                        //   in Loop: Header=BB27_153 Depth=2
	mul	x19, x11, x3
	mov	x7, xzr
	mov	x20, x10
	mov	x21, x6
	b	.LBB27_156
	.p2align	5, , 16
.LBB27_155:                             // %._crit_edge.i.i723
                                        //   in Loop: Header=BB27_156 Depth=3
	add	x7, x7, #1
	add	x21, x21, x14
	add	x20, x20, x14
	cmp	x7, x12
	b.eq	.LBB27_152
.LBB27_156:                             // %.preheader.i.i722
                                        //   Parent Loop BB27_3 Depth=1
                                        //     Parent Loop BB27_153 Depth=2
                                        // =>    This Loop Header: Depth=3
                                        //         Child Loop BB27_160 Depth 4
                                        //           Child Loop BB27_164 Depth 5
                                        //           Child Loop BB27_167 Depth 5
	cmp	x0, #1
	b.lt	.LBB27_155
// %bb.157:                             // %.lr.ph.i.i724
                                        //   in Loop: Header=BB27_156 Depth=3
	ldr	x23, [sp, #768]                 // 8-byte Folded Reload
	mov	x22, xzr
	ldr	x25, [x8, #248]
	add	x24, x25, x21
	ldr	x23, [x23, #248]
	add	x25, x25, x20
	madd	x23, x7, x17, x23
	add	x23, x23, x19
	b	.LBB27_160
	.p2align	5, , 16
.LBB27_158:                             //   in Loop: Header=BB27_160 Depth=4
	fmov	s1, wzr
.LBB27_159:                             // %ggml_vec_sum_f32.exit.i.i726
                                        //   in Loop: Header=BB27_160 Depth=4
	fdiv	s1, s1, s0
	mul	x26, x22, x16
	add	x22, x22, #1
	add	x24, x24, x13
	add	x25, x25, x13
	str	s1, [x23, x26]
	cmp	x22, x0
	b.eq	.LBB27_155
.LBB27_160:                             //   Parent Loop BB27_3 Depth=1
                                        //     Parent Loop BB27_153 Depth=2
                                        //       Parent Loop BB27_156 Depth=3
                                        // =>      This Loop Header: Depth=4
                                        //           Child Loop BB27_164 Depth 5
                                        //           Child Loop BB27_167 Depth 5
	cmp	w1, #1
	b.lt	.LBB27_158
// %bb.161:                             // %.lr.ph.i.i.i729.preheader
                                        //   in Loop: Header=BB27_160 Depth=4
	cmp	x2, #3
	b.hs	.LBB27_163
// %bb.162:                             //   in Loop: Header=BB27_160 Depth=4
	mov	x26, xzr
	fmov	d1, xzr
	cbnz	x4, .LBB27_166
	b	.LBB27_168
	.p2align	5, , 16
.LBB27_163:                             // %.lr.ph.i.i.i729.preheader1499
                                        //   in Loop: Header=BB27_160 Depth=4
	fmov	d1, xzr
	mov	x26, xzr
	mov	x27, x24
	.p2align	5, , 16
.LBB27_164:                             // %.lr.ph.i.i.i729
                                        //   Parent Loop BB27_3 Depth=1
                                        //     Parent Loop BB27_153 Depth=2
                                        //       Parent Loop BB27_156 Depth=3
                                        //         Parent Loop BB27_160 Depth=4
                                        // =>        This Inner Loop Header: Depth=5
	ldp	s2, s3, [x27, #-8]
	sub	x26, x26, #4
	fcvt	d2, s2
	fadd	d1, d1, d2
	fcvt	d2, s3
	fadd	d1, d1, d2
	ldp	s2, s3, [x27], #16
	fcvt	d2, s2
	fadd	d1, d1, d2
	fcvt	d2, s3
	fadd	d1, d1, d2
	cmp	x5, x26
	b.ne	.LBB27_164
// %bb.165:                             // %._crit_edge.loopexit.i.i.i734.unr-lcssa.loopexit
                                        //   in Loop: Header=BB27_160 Depth=4
	neg	x26, x26
	cbz	x4, .LBB27_168
.LBB27_166:                             // %.lr.ph.i.i.i729.epil.preheader
                                        //   in Loop: Header=BB27_160 Depth=4
	add	x26, x25, x26, lsl #2
	mov	x27, x4
	.p2align	5, , 16
.LBB27_167:                             // %.lr.ph.i.i.i729.epil
                                        //   Parent Loop BB27_3 Depth=1
                                        //     Parent Loop BB27_153 Depth=2
                                        //       Parent Loop BB27_156 Depth=3
                                        //         Parent Loop BB27_160 Depth=4
                                        // =>        This Inner Loop Header: Depth=5
	ldr	s2, [x26], #4
	subs	x27, x27, #1
	fcvt	d2, s2
	fadd	d1, d1, d2
	b.ne	.LBB27_167
.LBB27_168:                             // %._crit_edge.loopexit.i.i.i734
                                        //   in Loop: Header=BB27_160 Depth=4
	fcvt	s1, d1
	b	.LBB27_159
.LBB27_169:                             //   in Loop: Header=BB27_3 Depth=1
	ldr	x8, [sp, #768]                  // 8-byte Folded Reload
	ldr	x12, [x8, #152]
	ldr	w8, [x12]
	cbnz	w8, .LBB27_2560
// %bb.170:                             //   in Loop: Header=BB27_3 Depth=1
	ldr	w8, [sp, #784]
	cbnz	w8, .LBB27_7
// %bb.171:                             //   in Loop: Header=BB27_3 Depth=1
	ldr	x8, [x12, #24]
	cmp	x8, #1
	b.lt	.LBB27_7
// %bb.172:                             // %.lr.ph.i.i711
                                        //   in Loop: Header=BB27_3 Depth=1
	ldr	x16, [sp, #768]                 // 8-byte Folded Reload
	mov	x9, xzr
	ldr	x10, [x12, #16]
	and	x17, x10, #0x7fffffff
	ldr	x11, [x12, #248]
	ldr	x12, [x12, #56]
	ldr	x13, [x16, #48]
	and	x14, x10, #0x3
	add	x0, x11, #8
	sub	x15, x17, #1
	ldr	x16, [x16, #248]
	sub	x17, x17, x14
	b	.LBB27_175
.LBB27_173:                             //   in Loop: Header=BB27_175 Depth=2
	mov	w2, wzr
.LBB27_174:                             // %ggml_vec_argmax_f32.exit.i.i
                                        //   in Loop: Header=BB27_175 Depth=2
	mul	x1, x9, x13
	add	x9, x9, #1
	add	x0, x0, x12
	add	x11, x11, x12
	str	w2, [x16, x1]
	cmp	x9, x8
	b.eq	.LBB27_7
.LBB27_175:                             //   Parent Loop BB27_3 Depth=1
                                        // =>  This Loop Header: Depth=2
                                        //       Child Loop BB27_179 Depth 3
                                        //       Child Loop BB27_182 Depth 3
	cmp	w10, #1
	b.lt	.LBB27_173
// %bb.176:                             // %.lr.ph.i.i.i714.preheader
                                        //   in Loop: Header=BB27_175 Depth=2
	cmp	x15, #3
	b.hs	.LBB27_178
// %bb.177:                             //   in Loop: Header=BB27_175 Depth=2
	mov	w3, #-8388608                   // =0xff800000
	mov	x1, xzr
	fmov	s0, w3
	mov	w2, wzr
	b	.LBB27_180
.LBB27_178:                             // %.lr.ph.i.i.i714.preheader1525
                                        //   in Loop: Header=BB27_175 Depth=2
	mov	w3, #-8388608                   // =0xff800000
	mov	x1, xzr
	fmov	s0, w3
	mov	w2, wzr
	mov	x3, x0
	.p2align	5, , 16
.LBB27_179:                             // %.lr.ph.i.i.i714
                                        //   Parent Loop BB27_3 Depth=1
                                        //     Parent Loop BB27_175 Depth=2
                                        // =>    This Inner Loop Header: Depth=3
	ldp	s1, s2, [x3, #-8]
	add	w4, w1, #2
	fcmp	s0, s1
	fcsel	s0, s0, s1, gt
	fcmp	s0, s1
	csel	w2, w1, w2, eq
	fcmp	s0, s2
	fcsel	s0, s0, s2, gt
	fcmp	s0, s2
	csinc	w2, w2, w1, ne
	ldp	s1, s2, [x3], #16
	fcmp	s0, s1
	fcsel	s0, s0, s1, gt
	fcmp	s0, s1
	csel	w2, w4, w2, eq
	fcmp	s0, s2
	add	w4, w1, #3
	add	x1, x1, #4
	fcsel	s0, s0, s2, gt
	fcmp	s0, s2
	csel	w2, w4, w2, eq
	cmp	x1, x17
	b.ne	.LBB27_179
.LBB27_180:                             // %ggml_vec_argmax_f32.exit.i.i.loopexit.unr-lcssa
                                        //   in Loop: Header=BB27_175 Depth=2
	cbz	x14, .LBB27_174
// %bb.181:                             // %.lr.ph.i.i.i714.epil.preheader
                                        //   in Loop: Header=BB27_175 Depth=2
	mov	x3, x14
	.p2align	5, , 16
.LBB27_182:                             // %.lr.ph.i.i.i714.epil
                                        //   Parent Loop BB27_3 Depth=1
                                        //     Parent Loop BB27_175 Depth=2
                                        // =>    This Inner Loop Header: Depth=3
	ldr	s1, [x11, x1, lsl #2]
	fcmp	s0, s1
	fcsel	s0, s0, s1, gt
	fcmp	s0, s1
	csel	w2, w1, w2, eq
	add	x1, x1, #1
	subs	x3, x3, #1
	b.ne	.LBB27_182
	b	.LBB27_174
.LBB27_183:                             //   in Loop: Header=BB27_3 Depth=1
	ldr	x9, [sp, #768]                  // 8-byte Folded Reload
	ldr	x20, [x9, #152]
	ldr	w8, [x20]
	cmp	w8, #26
	b.ne	.LBB27_2561
// %bb.184:                             //   in Loop: Header=BB27_3 Depth=1
	ldr	x19, [x9, #160]
	ldr	w8, [x19]
	cmp	w8, #26
	b.ne	.LBB27_2562
// %bb.185:                             //   in Loop: Header=BB27_3 Depth=1
	ldp	x24, x8, [x20, #16]
	mov	x0, x20
	ldp	x28, x22, [x20, #48]
	mov	x1, x19
	ldp	x25, x26, [x19, #48]
	str	x8, [sp, #760]                  // 8-byte Folded Spill
	ldp	x8, x27, [x20, #32]
	str	x8, [sp, #752]                  // 8-byte Folded Spill
	ldp	x9, x8, [x20, #64]
	str	x9, [sp, #744]                  // 8-byte Folded Spill
	str	x8, [sp, #736]                  // 8-byte Folded Spill
	ldp	x9, x8, [x19, #64]
	str	x9, [sp, #728]                  // 8-byte Folded Spill
	str	x8, [sp, #720]                  // 8-byte Folded Spill
	bl	ggml_are_same_shape
	tbnz	w0, #0, .LBB27_186
	b	.LBB27_2563
.LBB27_186:                             //   in Loop: Header=BB27_3 Depth=1
	ldr	x21, [sp, #768]                 // 8-byte Folded Reload
	mov	x0, x21
	bl	ggml_is_scalar
	tbnz	w0, #0, .LBB27_187
	b	.LBB27_2564
.LBB27_187:                             //   in Loop: Header=BB27_3 Depth=1
	ldr	w8, [x21]
	cmp	w8, #27
	b.ne	.LBB27_2565
// %bb.188:                             //   in Loop: Header=BB27_3 Depth=1
	mov	x0, x20
	bl	ggml_nrows
	ldrsw	x9, [sp, #788]
	add	x8, x0, x9
	ldrsw	x10, [sp, #784]
	str	x9, [sp, #680]                  // 8-byte Folded Spill
	str	x10, [sp, #688]                 // 8-byte Folded Spill
	sub	x8, x8, #1
	sdiv	x8, x8, x9
	mul	x9, x8, x10
	add	x8, x9, x8
	cmp	x8, x0
	csel	x10, x8, x0, lt
	cmp	x9, x10
	b.ge	.LBB27_1891
// %bb.189:                             // %.lr.ph135.i.i
                                        //   in Loop: Header=BB27_3 Depth=1
	ldr	x8, [sp, #760]                  // 8-byte Folded Reload
	cmp	x28, #1
	mov	x21, xzr
	ldr	x11, [sp, #752]                 // 8-byte Folded Reload
	ccmp	x25, #1, #0, eq
	and	x13, x24, #0x7ffffffffffffffe
	ldr	x15, [x19, #248]
	cset	w14, ne
	lsl	x0, x25, #2
	lsl	x1, x28, #2
	mul	x11, x11, x8
	ldr	x8, [x20, #248]
	add	x12, x15, #1
	str	x12, [sp, #704]                 // 8-byte Folded Spill
	str	x8, [sp, #712]                  // 8-byte Folded Spill
	add	x8, x8, #1
	str	x8, [sp, #696]                  // 8-byte Folded Spill
	b	.LBB27_191
	.p2align	5, , 16
.LBB27_190:                             // %._crit_edge.i.i705
                                        //   in Loop: Header=BB27_191 Depth=2
	add	x9, x9, #1
	cmp	x9, x10
	b.eq	.LBB27_1892
.LBB27_191:                             //   Parent Loop BB27_3 Depth=1
                                        // =>  This Loop Header: Depth=2
                                        //       Child Loop BB27_194 Depth 3
                                        //       Child Loop BB27_198 Depth 3
                                        //       Child Loop BB27_202 Depth 3
	sdiv	x8, x9, x11
	mul	x2, x8, x27
	sub	x2, x9, x2
	cmp	x24, #1
	b.lt	.LBB27_190
// %bb.192:                             // %.lr.ph.i.i707.preheader
                                        //   in Loop: Header=BB27_191 Depth=2
	ldr	x12, [sp, #760]                 // 8-byte Folded Reload
	mov	x19, xzr
	sdiv	x7, x2, x12
	ldr	x12, [sp, #752]                 // 8-byte Folded Reload
	mul	x5, x7, x12
	ldr	x12, [sp, #736]                 // 8-byte Folded Reload
	mul	x3, x8, x12
	ldr	x12, [sp, #744]                 // 8-byte Folded Reload
	mul	x4, x7, x12
	ldr	x12, [sp, #720]                 // 8-byte Folded Reload
	mul	x6, x8, x12
	ldr	x12, [sp, #728]                 // 8-byte Folded Reload
	cset	w8, eq
	orr	w8, w8, w14
	mul	x7, x7, x12
	tbnz	w8, #0, .LBB27_196
// %bb.193:                             // %vector.body131.preheader
                                        //   in Loop: Header=BB27_191 Depth=2
	add	x8, x7, x6
	sub	x20, x2, x5
	ldr	x12, [sp, #704]                 // 8-byte Folded Reload
	nop
	madd	x8, x26, x20, x8
	add	x23, x4, x3
	madd	x20, x22, x20, x23
	mov	x23, x13
	add	x8, x12, x8
	ldr	x12, [sp, #696]                 // 8-byte Folded Reload
	add	x20, x12, x20
	.p2align	5, , 16
.LBB27_194:                             // %vector.body131
                                        //   Parent Loop BB27_3 Depth=1
                                        //     Parent Loop BB27_191 Depth=2
                                        // =>    This Inner Loop Header: Depth=3
	ldur	w16, [x20, #-1]
	ldur	w30, [x8, #-1]
	cmp	w16, w30
	ldr	w17, [x20], #2
	cinc	x21, x21, eq
	ldr	w16, [x8], #2
	cmp	w17, w16
	cinc	x19, x19, eq
	subs	x23, x23, #2
	b.ne	.LBB27_194
// %bb.195:                             // %middle.block124
                                        //   in Loop: Header=BB27_191 Depth=2
	add	x21, x19, x21
	mov	x19, x13
	cmp	x24, x13
	b.eq	.LBB27_190
.LBB27_196:                             // %.lr.ph.i.i707.preheader524
                                        //   in Loop: Header=BB27_191 Depth=2
	sub	w8, w24, w19
	ands	x23, x8, #0x3
	b.eq	.LBB27_199
// %bb.197:                             // %.lr.ph.i.i707.prol.preheader
                                        //   in Loop: Header=BB27_191 Depth=2
	madd	x8, x25, x19, x7
	sub	x30, x2, x5
	ldr	x12, [sp, #712]                 // 8-byte Folded Reload
	nop
	madd	x20, x28, x19, x4
	add	x8, x8, x6
	add	x20, x20, x3
	madd	x8, x26, x30, x8
	madd	x20, x22, x30, x20
	add	x8, x15, x8
	add	x30, x12, x20
	mov	x20, x19
	.p2align	5, , 16
.LBB27_198:                             // %.lr.ph.i.i707.prol
                                        //   Parent Loop BB27_3 Depth=1
                                        //     Parent Loop BB27_191 Depth=2
                                        // =>    This Inner Loop Header: Depth=3
	ldr	w16, [x30]
	add	x20, x20, #1
	add	x30, x30, x28
	ldr	w17, [x8]
	add	x8, x8, x25
	cmp	w16, w17
	cinc	x21, x21, eq
	subs	x23, x23, #1
	b.ne	.LBB27_198
	b	.LBB27_200
.LBB27_199:                             //   in Loop: Header=BB27_191 Depth=2
	mov	x20, x19
.LBB27_200:                             // %.lr.ph.i.i707.prol.loopexit
                                        //   in Loop: Header=BB27_191 Depth=2
	sub	x8, x19, x24
	cmn	x8, #4
	b.hi	.LBB27_190
// %bb.201:                             // %.lr.ph.i.i707.preheader1526
                                        //   in Loop: Header=BB27_191 Depth=2
	add	x16, x7, x6
	sub	x17, x2, x5
	madd	x16, x26, x17, x16
	add	x2, x4, x3
	add	x8, x20, #3
	madd	x17, x22, x17, x2
	mul	x19, x25, x8
	add	x5, x20, #2
	add	x30, x20, #1
	mul	x3, x28, x8
	ldr	x8, [sp, #712]                  // 8-byte Folded Reload
	sub	x2, x24, x20
	mul	x4, x25, x5
	add	x23, x8, x17
	mul	x5, x28, x5
	mul	x6, x25, x30
	add	x7, x15, x16
	mul	x30, x28, x30
	mul	x8, x25, x20
	mul	x20, x28, x20
	.p2align	5, , 16
.LBB27_202:                             // %.lr.ph.i.i707
                                        //   Parent Loop BB27_3 Depth=1
                                        //     Parent Loop BB27_191 Depth=2
                                        // =>    This Inner Loop Header: Depth=3
	ldr	w16, [x23, x20]
	ldr	w17, [x7, x8]
	cmp	w16, w17
	ldr	w12, [x23, x30]
	cinc	x21, x21, eq
	ldr	w16, [x7, x6]
	cmp	w12, w16
	ldr	w17, [x23, x5]
	cinc	x16, x21, eq
	ldr	w12, [x7, x4]
	cmp	w17, w12
	ldr	w21, [x23, x3]
	add	x23, x23, x1
	ldr	w12, [x7, x19]
	add	x7, x7, x0
	cinc	x16, x16, eq
	cmp	w21, w12
	cinc	x21, x16, eq
	subs	x2, x2, #4
	b.ne	.LBB27_202
	b	.LBB27_190
.LBB27_203:                             //   in Loop: Header=BB27_3 Depth=1
	ldr	x8, [sp, #768]                  // 8-byte Folded Reload
	ldr	x21, [x8, #152]
	ldr	w8, [x21]
	cmp	w8, #30
	b.hi	.LBB27_2790
// %bb.204:                             //   in Loop: Header=BB27_3 Depth=1
	mov	w9, #1                          // =0x1
	lsl	w8, w9, w8
	mov	w9, #2                          // =0x2
	movk	w9, #16896, lsl #16
	tst	w8, w9
	b.eq	.LBB27_1954
// %bb.205:                             //   in Loop: Header=BB27_3 Depth=1
	ldr	w8, [sp, #784]
	cbnz	w8, .LBB27_7
// %bb.206:                             //   in Loop: Header=BB27_3 Depth=1
	ldr	x19, [sp, #768]                 // 8-byte Folded Reload
	mov	x0, x21
	mov	x1, x19
	bl	ggml_can_repeat
	tbnz	w0, #0, .LBB27_207
	b	.LBB27_2729
.LBB27_207:                             //   in Loop: Header=BB27_3 Depth=1
	ldr	x8, [x19, #48]
	cmp	x8, #2
	b.ne	.LBB27_2730
// %bb.208:                             //   in Loop: Header=BB27_3 Depth=1
	ldr	x8, [x21, #48]
	cmp	x8, #2
	b.ne	.LBB27_2731
// %bb.209:                             // %.preheader116.i.i
                                        //   in Loop: Header=BB27_3 Depth=1
	ldr	x9, [x21, #40]
	str	x9, [sp, #608]                  // 8-byte Folded Spill
	ldr	x8, [x19, #40]
	sdiv	x8, x8, x9
	cmp	w8, #1
	b.lt	.LBB27_7
// %bb.210:                             // %.preheader115.lr.ph.i.i
                                        //   in Loop: Header=BB27_3 Depth=1
	ldr	x15, [sp, #768]                 // 8-byte Folded Reload
	and	x8, x8, #0x7fffffff
	str	xzr, [sp, #576]                 // 8-byte Folded Spill
	ldr	x16, [x21, #32]
	str	x8, [sp, #552]                  // 8-byte Folded Spill
	str	xzr, [sp, #560]                 // 8-byte Folded Spill
	ldp	x11, x12, [x21, #16]
	ldr	x13, [x15, #32]
	ldp	x9, x10, [x15, #16]
	lsl	x4, x11, #1
	and	x22, x11, #0x7
	str	x16, [sp, #720]                 // 8-byte Folded Spill
	sdiv	x8, x13, x16
	ldp	x14, x17, [x21, #56]
	str	x17, [sp, #712]                 // 8-byte Folded Spill
	ldr	x17, [x21, #72]
	str	x17, [sp, #600]                 // 8-byte Folded Spill
	str	x8, [sp, #584]                  // 8-byte Folded Spill
	sdiv	x2, x9, x11
	and	x8, x8, #0x7fffffff
	and	x20, x2, #0x7fffffff
	ldp	x17, x0, [x15, #56]
	ldr	x15, [x15, #72]
	str	x15, [sp, #592]                 // 8-byte Folded Spill
	str	x0, [sp, #704]                  // 8-byte Folded Spill
	str	x8, [sp, #664]                  // 8-byte Folded Spill
	mul	x28, x12, x17
	sdiv	x9, x10, x12
	and	x8, x9, #0x7fffffff
	str	x9, [sp, #696]                  // 8-byte Folded Spill
	str	x8, [sp, #760]                  // 8-byte Folded Spill
	and	x8, x11, #0x7ffffffffffffff8
	neg	x24, x8
	ldr	x8, [sp, #608]                  // 8-byte Folded Reload
	mul	x8, x8, x15
	str	x8, [sp, #544]                  // 8-byte Folded Spill
	mul	x8, x16, x0
	str	x8, [sp, #656]                  // 8-byte Folded Spill
	mov	w8, #8                          // =0x8
	str	x8, [sp, #568]                  // 8-byte Folded Spill
	b	.LBB27_212
.LBB27_211:                             // %._crit_edge130.i.i
                                        //   in Loop: Header=BB27_212 Depth=2
	ldr	x10, [sp, #544]                 // 8-byte Folded Reload
	ldr	x8, [sp, #568]                  // 8-byte Folded Reload
	add	x8, x8, x10
	ldr	x9, [sp, #560]                  // 8-byte Folded Reload
	add	x9, x9, #1
	str	x8, [sp, #568]                  // 8-byte Folded Spill
	ldr	x8, [sp, #576]                  // 8-byte Folded Reload
	str	x9, [sp, #560]                  // 8-byte Folded Spill
	add	x8, x8, x10
	str	x8, [sp, #576]                  // 8-byte Folded Spill
	ldr	x8, [sp, #552]                  // 8-byte Folded Reload
	cmp	x9, x8
	b.eq	.LBB27_7
.LBB27_212:                             // %.preheader115.i.i
                                        //   Parent Loop BB27_3 Depth=1
                                        // =>  This Loop Header: Depth=2
                                        //       Child Loop BB27_215 Depth 3
                                        //         Child Loop BB27_218 Depth 4
                                        //           Child Loop BB27_221 Depth 5
                                        //             Child Loop BB27_224 Depth 6
                                        //               Child Loop BB27_227 Depth 7
                                        //                 Child Loop BB27_230 Depth 8
                                        //                   Child Loop BB27_234 Depth 9
                                        //                   Child Loop BB27_237 Depth 9
	ldr	x8, [sp, #608]                  // 8-byte Folded Reload
	cmp	x8, #1
	b.lt	.LBB27_211
// %bb.213:                             // %.preheader114.lr.ph.i.i
                                        //   in Loop: Header=BB27_212 Depth=2
	mov	w8, #8                          // =0x8
	mov	x10, xzr
	str	xzr, [sp, #648]                 // 8-byte Folded Spill
	str	x8, [sp, #640]                  // 8-byte Folded Spill
	ldr	x8, [sp, #576]                  // 8-byte Folded Reload
	str	x8, [sp, #632]                  // 8-byte Folded Spill
	ldr	x8, [sp, #568]                  // 8-byte Folded Reload
	str	x8, [sp, #624]                  // 8-byte Folded Spill
	b	.LBB27_215
	.p2align	5, , 16
.LBB27_214:                             // %._crit_edge128.i.i683
                                        //   in Loop: Header=BB27_215 Depth=3
	ldr	x9, [sp, #592]                  // 8-byte Folded Reload
	ldr	x8, [sp, #624]                  // 8-byte Folded Reload
	add	x8, x8, x9
	ldr	x13, [sp, #640]                 // 8-byte Folded Reload
	ldr	x10, [sp, #616]                 // 8-byte Folded Reload
	add	x10, x10, #1
	str	x8, [sp, #624]                  // 8-byte Folded Spill
	ldr	x8, [sp, #600]                  // 8-byte Folded Reload
	add	x13, x13, x8
	str	x13, [sp, #640]                 // 8-byte Folded Spill
	ldr	x13, [sp, #632]                 // 8-byte Folded Reload
	add	x13, x13, x9
	ldr	x9, [sp, #648]                  // 8-byte Folded Reload
	str	x13, [sp, #632]                 // 8-byte Folded Spill
	add	x9, x9, x8
	ldr	x8, [sp, #608]                  // 8-byte Folded Reload
	str	x9, [sp, #648]                  // 8-byte Folded Spill
	cmp	x10, x8
	b.eq	.LBB27_211
.LBB27_215:                             // %.preheader114.i.i
                                        //   Parent Loop BB27_3 Depth=1
                                        //     Parent Loop BB27_212 Depth=2
                                        // =>    This Loop Header: Depth=3
                                        //         Child Loop BB27_218 Depth 4
                                        //           Child Loop BB27_221 Depth 5
                                        //             Child Loop BB27_224 Depth 6
                                        //               Child Loop BB27_227 Depth 7
                                        //                 Child Loop BB27_230 Depth 8
                                        //                   Child Loop BB27_234 Depth 9
                                        //                   Child Loop BB27_237 Depth 9
	ldr	x8, [sp, #584]                  // 8-byte Folded Reload
	str	x10, [sp, #616]                 // 8-byte Folded Spill
	cmp	w8, #1
	b.lt	.LBB27_214
// %bb.216:                             // %.preheader113.lr.ph.i.i
                                        //   in Loop: Header=BB27_215 Depth=3
	ldr	x8, [sp, #632]                  // 8-byte Folded Reload
	mov	x9, xzr
	str	x8, [sp, #688]                  // 8-byte Folded Spill
	ldr	x8, [sp, #624]                  // 8-byte Folded Reload
	str	x8, [sp, #680]                  // 8-byte Folded Spill
	b	.LBB27_218
	.p2align	5, , 16
.LBB27_217:                             // %._crit_edge126.i.i686
                                        //   in Loop: Header=BB27_218 Depth=4
	ldr	x8, [sp, #656]                  // 8-byte Folded Reload
	ldr	x10, [sp, #680]                 // 8-byte Folded Reload
	add	x10, x10, x8
	ldr	x9, [sp, #672]                  // 8-byte Folded Reload
	add	x9, x9, #1
	str	x10, [sp, #680]                 // 8-byte Folded Spill
	ldr	x10, [sp, #688]                 // 8-byte Folded Reload
	add	x10, x10, x8
	ldr	x8, [sp, #664]                  // 8-byte Folded Reload
	str	x10, [sp, #688]                 // 8-byte Folded Spill
	cmp	x9, x8
	b.eq	.LBB27_214
.LBB27_218:                             // %.preheader113.i.i
                                        //   Parent Loop BB27_3 Depth=1
                                        //     Parent Loop BB27_212 Depth=2
                                        //       Parent Loop BB27_215 Depth=3
                                        // =>      This Loop Header: Depth=4
                                        //           Child Loop BB27_221 Depth 5
                                        //             Child Loop BB27_224 Depth 6
                                        //               Child Loop BB27_227 Depth 7
                                        //                 Child Loop BB27_230 Depth 8
                                        //                   Child Loop BB27_234 Depth 9
                                        //                   Child Loop BB27_237 Depth 9
	ldr	x8, [sp, #720]                  // 8-byte Folded Reload
	str	x9, [sp, #672]                  // 8-byte Folded Spill
	cmp	x8, #1
	b.lt	.LBB27_217
// %bb.219:                             // %.preheader112.lr.ph.i.i
                                        //   in Loop: Header=BB27_218 Depth=4
	ldr	x8, [sp, #648]                  // 8-byte Folded Reload
	mov	x10, xzr
	str	x8, [sp, #752]                  // 8-byte Folded Spill
	ldr	x8, [sp, #688]                  // 8-byte Folded Reload
	ldr	x16, [sp, #640]                 // 8-byte Folded Reload
	str	x8, [sp, #744]                  // 8-byte Folded Spill
	ldr	x8, [sp, #680]                  // 8-byte Folded Reload
	str	x8, [sp, #736]                  // 8-byte Folded Spill
	b	.LBB27_221
	.p2align	5, , 16
.LBB27_220:                             // %._crit_edge124.i.i688
                                        //   in Loop: Header=BB27_221 Depth=5
	ldr	x9, [sp, #704]                  // 8-byte Folded Reload
	ldr	x8, [sp, #736]                  // 8-byte Folded Reload
	add	x8, x8, x9
	ldr	x13, [sp, #744]                 // 8-byte Folded Reload
	add	x13, x13, x9
	ldr	x9, [sp, #752]                  // 8-byte Folded Reload
	ldr	x10, [sp, #728]                 // 8-byte Folded Reload
	add	x10, x10, #1
	str	x8, [sp, #736]                  // 8-byte Folded Spill
	ldr	x8, [sp, #712]                  // 8-byte Folded Reload
	str	x13, [sp, #744]                 // 8-byte Folded Spill
	add	x16, x16, x8
	add	x9, x9, x8
	ldr	x8, [sp, #720]                  // 8-byte Folded Reload
	str	x9, [sp, #752]                  // 8-byte Folded Spill
	cmp	x10, x8
	b.eq	.LBB27_217
.LBB27_221:                             // %.preheader112.i.i
                                        //   Parent Loop BB27_3 Depth=1
                                        //     Parent Loop BB27_212 Depth=2
                                        //       Parent Loop BB27_215 Depth=3
                                        //         Parent Loop BB27_218 Depth=4
                                        // =>        This Loop Header: Depth=5
                                        //             Child Loop BB27_224 Depth 6
                                        //               Child Loop BB27_227 Depth 7
                                        //                 Child Loop BB27_230 Depth 8
                                        //                   Child Loop BB27_234 Depth 9
                                        //                   Child Loop BB27_237 Depth 9
	ldr	x8, [sp, #696]                  // 8-byte Folded Reload
	str	x10, [sp, #728]                 // 8-byte Folded Spill
	cmp	w8, #1
	b.lt	.LBB27_220
// %bb.222:                             // %.preheader111.lr.ph.i.i
                                        //   in Loop: Header=BB27_221 Depth=5
	ldr	x10, [sp, #744]                 // 8-byte Folded Reload
	mov	x5, xzr
	ldr	x8, [sp, #736]                  // 8-byte Folded Reload
	b	.LBB27_224
	.p2align	5, , 16
.LBB27_223:                             // %._crit_edge122.i.i689
                                        //   in Loop: Header=BB27_224 Depth=6
	ldr	x9, [sp, #760]                  // 8-byte Folded Reload
	add	x5, x5, #1
	add	x8, x8, x28
	add	x10, x10, x28
	cmp	x5, x9
	b.eq	.LBB27_220
.LBB27_224:                             // %.preheader111.i.i
                                        //   Parent Loop BB27_3 Depth=1
                                        //     Parent Loop BB27_212 Depth=2
                                        //       Parent Loop BB27_215 Depth=3
                                        //         Parent Loop BB27_218 Depth=4
                                        //           Parent Loop BB27_221 Depth=5
                                        // =>          This Loop Header: Depth=6
                                        //               Child Loop BB27_227 Depth 7
                                        //                 Child Loop BB27_230 Depth 8
                                        //                   Child Loop BB27_234 Depth 9
                                        //                   Child Loop BB27_237 Depth 9
	cmp	x12, #1
	b.lt	.LBB27_223
// %bb.225:                             // %.preheader.lr.ph.i.i690
                                        //   in Loop: Header=BB27_224 Depth=6
	ldr	x30, [sp, #752]                 // 8-byte Folded Reload
	mov	x1, xzr
	mov	x9, x10
	mov	x25, x16
	mov	x27, x8
	b	.LBB27_227
	.p2align	5, , 16
.LBB27_226:                             // %._crit_edge120.i.i
                                        //   in Loop: Header=BB27_227 Depth=7
	add	x1, x1, #1
	add	x27, x27, x17
	add	x25, x25, x14
	add	x9, x9, x17
	add	x30, x30, x14
	cmp	x1, x12
	b.eq	.LBB27_223
.LBB27_227:                             // %.preheader.i.i691
                                        //   Parent Loop BB27_3 Depth=1
                                        //     Parent Loop BB27_212 Depth=2
                                        //       Parent Loop BB27_215 Depth=3
                                        //         Parent Loop BB27_218 Depth=4
                                        //           Parent Loop BB27_221 Depth=5
                                        //             Parent Loop BB27_224 Depth=6
                                        // =>            This Loop Header: Depth=7
                                        //                 Child Loop BB27_230 Depth 8
                                        //                   Child Loop BB27_234 Depth 9
                                        //                   Child Loop BB27_237 Depth 9
	cmp	w2, #1
	b.lt	.LBB27_226
// %bb.228:                             // %.lr.ph119.i.i
                                        //   in Loop: Header=BB27_227 Depth=7
	ldr	x13, [sp, #768]                 // 8-byte Folded Reload
	mov	x3, xzr
	ldr	x15, [x21, #248]
	add	x6, x15, x25
	ldr	x13, [x13, #248]
	add	x7, x15, x30
	add	x19, x13, x27
	add	x0, x13, x9
	b	.LBB27_230
	.p2align	5, , 16
.LBB27_229:                             // %._crit_edge.i.i693
                                        //   in Loop: Header=BB27_230 Depth=8
	add	x3, x3, #1
	add	x19, x19, x4
	add	x0, x0, x4
	cmp	x3, x20
	b.eq	.LBB27_226
.LBB27_230:                             //   Parent Loop BB27_3 Depth=1
                                        //     Parent Loop BB27_212 Depth=2
                                        //       Parent Loop BB27_215 Depth=3
                                        //         Parent Loop BB27_218 Depth=4
                                        //           Parent Loop BB27_221 Depth=5
                                        //             Parent Loop BB27_224 Depth=6
                                        //               Parent Loop BB27_227 Depth=7
                                        // =>              This Loop Header: Depth=8
                                        //                   Child Loop BB27_234 Depth 9
                                        //                   Child Loop BB27_237 Depth 9
	cmp	x11, #1
	b.lt	.LBB27_229
// %bb.231:                             // %.lr.ph.i.i694.preheader
                                        //   in Loop: Header=BB27_230 Depth=8
	cmp	x11, #8
	b.hs	.LBB27_233
// %bb.232:                             //   in Loop: Header=BB27_230 Depth=8
	mov	x23, xzr
	cbnz	x22, .LBB27_236
	b	.LBB27_229
	.p2align	5, , 16
.LBB27_233:                             // %.lr.ph.i.i694.preheader1483
                                        //   in Loop: Header=BB27_230 Depth=8
	mov	x23, xzr
	mov	x15, x6
	mov	x13, x19
	.p2align	5, , 16
.LBB27_234:                             // %.lr.ph.i.i694
                                        //   Parent Loop BB27_3 Depth=1
                                        //     Parent Loop BB27_212 Depth=2
                                        //       Parent Loop BB27_215 Depth=3
                                        //         Parent Loop BB27_218 Depth=4
                                        //           Parent Loop BB27_221 Depth=5
                                        //             Parent Loop BB27_224 Depth=6
                                        //               Parent Loop BB27_227 Depth=7
                                        //                 Parent Loop BB27_230 Depth=8
                                        // =>                This Inner Loop Header: Depth=9
	ldurh	w26, [x15, #-8]
	sub	x23, x23, #8
	sturh	w26, [x13, #-8]
	ldurh	w26, [x15, #-6]
	sturh	w26, [x13, #-6]
	ldurh	w26, [x15, #-4]
	sturh	w26, [x13, #-4]
	ldurh	w26, [x15, #-2]
	sturh	w26, [x13, #-2]
	ldrh	w26, [x15]
	strh	w26, [x13]
	ldrh	w26, [x15, #2]
	strh	w26, [x13, #2]
	ldrh	w26, [x15, #4]
	strh	w26, [x13, #4]
	ldrh	w26, [x15, #6]
	add	x15, x15, #16
	strh	w26, [x13, #6]
	add	x13, x13, #16
	cmp	x24, x23
	b.ne	.LBB27_234
// %bb.235:                             // %._crit_edge.i.i693.loopexit.unr-lcssa.loopexit
                                        //   in Loop: Header=BB27_230 Depth=8
	neg	x23, x23
	cbz	x22, .LBB27_229
.LBB27_236:                             // %.lr.ph.i.i694.epil.preheader
                                        //   in Loop: Header=BB27_230 Depth=8
	add	x13, x0, x23, lsl #1
	mov	x15, x22
	add	x23, x7, x23, lsl #1
	.p2align	5, , 16
.LBB27_237:                             // %.lr.ph.i.i694.epil
                                        //   Parent Loop BB27_3 Depth=1
                                        //     Parent Loop BB27_212 Depth=2
                                        //       Parent Loop BB27_215 Depth=3
                                        //         Parent Loop BB27_218 Depth=4
                                        //           Parent Loop BB27_221 Depth=5
                                        //             Parent Loop BB27_224 Depth=6
                                        //               Parent Loop BB27_227 Depth=7
                                        //                 Parent Loop BB27_230 Depth=8
                                        // =>                This Inner Loop Header: Depth=9
	ldrh	w26, [x23], #2
	subs	x15, x15, #1
	strh	w26, [x13], #2
	b.ne	.LBB27_237
	b	.LBB27_229
.LBB27_238:                             //   in Loop: Header=BB27_3 Depth=1
	ldr	x8, [sp, #768]                  // 8-byte Folded Reload
	ldr	x21, [x8, #152]
	ldr	w8, [x21]
	cbnz	w8, .LBB27_2566
// %bb.239:                             //   in Loop: Header=BB27_3 Depth=1
	ldr	w8, [sp, #784]
	cbnz	w8, .LBB27_7
// %bb.240:                             //   in Loop: Header=BB27_3 Depth=1
	ldr	x19, [sp, #768]                 // 8-byte Folded Reload
	mov	x1, x21
	mov	x0, x19
	bl	ggml_can_repeat
	tbnz	w0, #0, .LBB27_241
	b	.LBB27_2732
.LBB27_241:                             //   in Loop: Header=BB27_3 Depth=1
	ldr	x8, [x19, #48]
	cmp	x8, #4
	b.ne	.LBB27_2733
// %bb.242:                             //   in Loop: Header=BB27_3 Depth=1
	ldr	x8, [x21, #48]
	cmp	x8, #4
	b.ne	.LBB27_2734
// %bb.243:                             //   in Loop: Header=BB27_3 Depth=1
	ldp	x9, x8, [x21, #16]
	mov	x0, x19
	ldp	x25, x26, [x19, #16]
	str	x9, [sp, #616]                  // 8-byte Folded Spill
	str	x8, [sp, #624]                  // 8-byte Folded Spill
	ldp	x9, x8, [x21, #32]
	ldp	x22, x23, [x19, #32]
	str	x8, [sp, #640]                  // 8-byte Folded Spill
	ldp	x20, x8, [x21, #56]
	str	x9, [sp, #632]                  // 8-byte Folded Spill
	str	x8, [sp, #704]                  // 8-byte Folded Spill
	ldr	x8, [x21, #72]
	str	x8, [sp, #592]                  // 8-byte Folded Spill
	ldp	x28, x8, [x19, #56]
	str	x8, [sp, #712]                  // 8-byte Folded Spill
	ldr	x8, [x19, #72]
	str	x8, [sp, #600]                  // 8-byte Folded Spill
	bl	ggml_is_contiguous
	str	x22, [sp, #720]                 // 8-byte Folded Spill
	str	x23, [sp, #608]                 // 8-byte Folded Spill
	tbnz	w0, #0, .LBB27_244
	b	.LBB27_2188
.LBB27_244:                             //   in Loop: Header=BB27_3 Depth=1
	mul	x8, x26, x25
	mul	x8, x8, x22
	mul	x8, x8, x23
	cmp	w8, #1
	b.lt	.LBB27_2204
// %bb.245:                             // %.lr.ph.preheader.i.i.i657
                                        //   in Loop: Header=BB27_3 Depth=1
	ldr	x9, [sp, #768]                  // 8-byte Folded Reload
	ubfiz	x2, x8, #2, #31
	mov	w1, wzr
	ldr	x0, [x9, #248]
	bl	memset
	b	.LBB27_2204
.LBB27_246:                             //   in Loop: Header=BB27_3 Depth=1
	ldr	x20, [sp, #768]                 // 8-byte Folded Reload
	ldr	x8, [x20, #152]
	ldr	w0, [x8]
	str	x8, [sp, #760]                  // 8-byte Folded Spill
	cmp	w0, #30
	b.hi	.LBB27_2290
// %bb.247:                             //   in Loop: Header=BB27_3 Depth=1
	mov	w8, #1                          // =0x1
	mov	w9, #2                          // =0x2
	lsl	w8, w8, w0
	movk	w9, #16896, lsl #16
	tst	w8, w9
	b.ne	.LBB27_1934
// %bb.248:                             //   in Loop: Header=BB27_3 Depth=1
	mov	w9, #1                          // =0x1
	movk	w9, #1024, lsl #16
	tst	w8, w9
	b.eq	.LBB27_2167
// %bb.249:                             //   in Loop: Header=BB27_3 Depth=1
	ldr	x19, [x20, #160]
	bl	ggml_type_size
	cmp	x0, #4
	b.ne	.LBB27_2735
// %bb.250:                             //   in Loop: Header=BB27_3 Depth=1
	ldr	w14, [x20, #84]
	cmp	w14, #4
	b.hs	.LBB27_2736
// %bb.251:                             //   in Loop: Header=BB27_3 Depth=1
	ldp	x1, x0, [x19, #64]
	str	x0, [sp, #648]                  // 8-byte Folded Spill
	ldp	x0, x7, [x20, #32]
	ldr	x3, [sp, #760]                  // 8-byte Folded Reload
	ldp	x8, x9, [x3, #16]!
	str	x1, [sp, #712]                  // 8-byte Folded Spill
	ldp	x1, x2, [x20, #16]
	str	x0, [sp, #744]                  // 8-byte Folded Spill
	adrp	x0, .LCPI27_0
	str	x7, [sp, #664]                  // 8-byte Folded Spill
	ldp	x10, x11, [x3, #16]
	ldr	q0, [x0, :lo12:.LCPI27_0]
	add	x0, sp, #1072
	ldp	x12, x13, [x3, #32]
	ldp	x17, x15, [x3, #48]
	str	x15, [sp, #672]                 // 8-byte Folded Spill
	ldp	x15, x16, [x19, #48]
	stp	q0, q0, [x0]
	ldp	x0, x4, [x20, #64]
	str	x4, [sp, #656]                  // 8-byte Folded Spill
	ldr	x3, [x3, x14, lsl #3]
	add	x4, sp, #1072
	ldp	x5, x6, [x20, #48]
	str	x3, [x4, x14, lsl #3]
	ldrsw	x14, [sp, #784]
	str	x14, [sp, #680]                 // 8-byte Folded Spill
	ldrsw	x14, [sp, #788]
	str	x14, [sp, #736]                 // 8-byte Folded Spill
	cmp	x7, #1
	b.lt	.LBB27_7
// %bb.252:                             // %.preheader123.lr.ph.i29.i
                                        //   in Loop: Header=BB27_3 Depth=1
	ldr	x14, [sp, #680]                 // 8-byte Folded Reload
	mov	x23, xzr
	mul	x3, x17, x14
	mul	x14, x0, x14
	ldr	x25, [sp, #1072]
	ldr	x26, [sp, #1080]
	str	x3, [sp, #696]                  // 8-byte Folded Spill
	ldr	x3, [sp, #736]                  // 8-byte Folded Reload
	str	x14, [sp, #688]                 // 8-byte Folded Spill
	mul	x14, x0, x3
	mul	x17, x17, x3
	str	x14, [sp, #720]                 // 8-byte Folded Spill
	ldr	x14, [sp, #1088]
	str	x17, [sp, #728]                 // 8-byte Folded Spill
	str	x14, [sp, #704]                 // 8-byte Folded Spill
	ldr	x14, [sp, #1096]
	str	x14, [sp, #640]                 // 8-byte Folded Spill
	b	.LBB27_254
.LBB27_253:                             // %._crit_edge131.i32.i
                                        //   in Loop: Header=BB27_254 Depth=2
	ldr	x14, [sp, #672]                 // 8-byte Folded Reload
	add	x23, x23, #1
	ldr	x17, [sp, #696]                 // 8-byte Folded Reload
	add	x17, x17, x14
	ldr	x14, [sp, #656]                 // 8-byte Folded Reload
	str	x17, [sp, #696]                 // 8-byte Folded Spill
	ldr	x17, [sp, #688]                 // 8-byte Folded Reload
	add	x17, x17, x14
	ldr	x14, [sp, #664]                 // 8-byte Folded Reload
	str	x17, [sp, #688]                 // 8-byte Folded Spill
	cmp	x23, x14
	b.eq	.LBB27_7
.LBB27_254:                             // %.preheader123.i30.i
                                        //   Parent Loop BB27_3 Depth=1
                                        // =>  This Loop Header: Depth=2
                                        //       Child Loop BB27_257 Depth 3
                                        //         Child Loop BB27_260 Depth 4
                                        //           Child Loop BB27_264 Depth 5
